(ccopy_reg
_reconstructor
p0
(cargparse
Namespace
p1
c__builtin__
object
p2
Ntp3
Rp4
(dp5
S'opt_problem'
p6
S'data/network_RelaxedProblem_erdos_renyi_450demands_30catalog_size_mincap_3maxcap_3_64_powerlaw_rate1.0_15qnodes_0.95congestion_OPT'
p7
sS'innerIterations'
p8
I200
sS'trace_file'
p9
S'traces/network_RelaxedProblem_erdos_renyi_450demands_30catalog_size_mincap_3maxcap_3_64_powerlaw_rate1.0_15qnodes_0.95congestion'
p10
sS'logLevel'
p11
S'INFO'
p12
sS'debug_level'
p13
g12
sS'problem'
p14
S'data/network_RelaxedProblem_erdos_renyi_450demands_30catalog_size_mincap_3maxcap_3_64_powerlaw_rate1.0_15qnodes_0.95congestion'
p15
sS'logfile'
p16
S'logfiles/network_RelaxedProblem_erdos_renyi_450demands_30catalog_size_mincap_3maxcap_3_64_powerlaw_rate1.0_15qnodes_0.95congestion.log'
p17
sS'outerIterations'
p18
I500
sb(dp19
I0
(dp20
S'CONSTRAINT'
p21
F0.19272727272727272
sS'OBJ'
p22
cnumpy.core.multiarray
scalar
p23
(cnumpy
dtype
p24
(S'f8'
p25
I0
I1
tp26
Rp27
(I3
S'<'
p28
NNNI-1
I-1
I0
tp29
bS'$\xfa\x8d\xc9\xddqE\xc0'
p30
tp31
Rp32
sS'RelaxedCONSTRAINT'
p33
F0.19272727272727272
sS'DUALOBJ'
p34
g23
(g27
S'$\xfa\x8d\xc9\xddqE\xc0'
p35
tp36
Rp37
sS'time'
p38
F5.791188955307007
ssI1
(dp39
g21
F0.8654545454545455
sg22
g23
(g27
S'$\xfa\x8d\xc9\xddqE\xc0'
p40
tp41
Rp42
sg33
F0.8654545454545455
sg34
g37
sg38
F9.86112093925476
ssI2
(dp43
g21
F0.7672727272727272
sg22
g23
(g27
S'\x86Hl~\x8d\xffS@'
p44
tp45
Rp46
sg33
F0.7527272727272727
sg34
g37
sg38
F15.146506071090698
ssI3
(dp47
g21
F0.36
sg22
g23
(g27
S'\xc7\xb9^.\xd4.E\xc0'
p48
tp49
Rp50
sg33
F0.3563636363636364
sg34
g37
sg38
F20.828959941864014
ssI4
(dp51
g21
F0.8363636363636363
sg22
g23
(g27
S'\xf3\xdfF\xb4\x97\x0f@\xc0'
p52
tp53
Rp54
sg33
F0.8363636363636363
sg34
g37
sg38
F25.510431051254272
ssI5
(dp55
g21
F0.7672727272727272
sg22
g23
(g27
S'\xaeBH"{\xaf@\xc0'
p56
tp57
Rp58
sg33
F0.7636363636363637
sg34
g37
sg38
F30.73861789703369
ssI6
(dp59
g21
F0.6
sg22
g23
(g27
S'\x9f\x82\xbbp\x10\xd3D\xc0'
p60
tp61
Rp62
sg33
F0.5709090909090909
sg34
g37
sg38
F36.387365102767944
ssI7
(dp63
g21
F0.8654545454545455
sg22
g23
(g27
S'I\xbc?\x9c\xdffE\xc0'
p64
tp65
Rp66
sg33
F0.8654545454545455
sg34
g37
sg38
F41.20174312591553
ssI8
(dp67
g21
F0.8654545454545455
sg22
g23
(g27
S'S\xb3\x9d\xd2\xbc\xc2C\xc0'
p68
tp69
Rp70
sg33
F0.8618181818181818
sg34
g37
sg38
F46.374027967453
ssI9
(dp71
g21
F0.7054545454545454
sg22
g23
(g27
S'$\xfa\x8d\xc9\xddqE\xc0'
p72
tp73
Rp74
sg33
F0.6836363636363636
sg34
g37
sg38
F52.02974605560303
ssI10
(dp75
g21
F0.850909090909091
sg22
g23
(g27
S'\xd1\xad#D`\x1aE\xc0'
p76
tp77
Rp78
sg33
F0.8436363636363636
sg34
g37
sg38
F57.46944499015808
ssI11
(dp79
g21
F0.68
sg22
g23
(g27
S'\x17\xe5\xed}\x9ekE\xc0'
p80
tp81
Rp82
sg33
F0.6327272727272727
sg34
g37
sg38
F63.20227909088135
ssI12
(dp83
g21
F0.9054545454545454
sg22
g23
(g27
S'KGA\xed\xffnE\xc0'
p84
tp85
Rp86
sg33
F0.9018181818181819
sg34
g37
sg38
F68.19682097434998
ssI13
(dp87
g21
F0.8945454545454545
sg22
g23
(g27
S'$\xfa\x8d\xc9\xddqE\xc0'
p88
tp89
Rp90
sg33
F0.8945454545454545
sg34
g37
sg38
F73.46697092056274
ssI14
(dp91
g21
F0.7745454545454545
sg22
g23
(g27
S'$\xfa\x8d\xc9\xddqE\xc0'
p92
tp93
Rp94
sg33
F0.7236363636363636
sg34
g37
sg38
F79.1940860748291
ssI15
(dp95
g21
F0.8290909090909091
sg22
g23
(g27
S'$\xfa\x8d\xc9\xddqE\xc0'
p96
tp97
Rp98
sg33
F0.8072727272727273
sg34
g37
sg38
F84.80725193023682
ssI16
(dp99
g21
F0.8145454545454546
sg22
g23
(g27
S'$\xfa\x8d\xc9\xddqE\xc0'
p100
tp101
Rp102
sg33
F0.7709090909090909
sg34
g37
sg38
F90.56395506858826
ssI17
(dp103
g21
F0.84
sg22
g23
(g27
S'$\xfa\x8d\xc9\xddqE\xc0'
p104
tp105
Rp106
sg33
F0.8181818181818182
sg34
g37
sg38
F96.11396408081055
ssI18
(dp107
g21
F0.8
sg22
g23
(g27
S'$\xfa\x8d\xc9\xddqE\xc0'
p108
tp109
Rp110
sg33
F0.7672727272727272
sg34
g37
sg38
F101.87583303451538
ssI19
(dp111
g21
F0.8545454545454545
sg22
g23
(g27
S'$\xfa\x8d\xc9\xddqE\xc0'
p112
tp113
Rp114
sg33
F0.8218181818181818
sg34
g37
sg38
F107.57688999176025
ssI20
(dp115
g21
F0.7890909090909091
sg22
g23
(g27
S'$\xfa\x8d\xc9\xddqE\xc0'
p116
tp117
Rp118
sg33
F0.7563636363636363
sg34
g37
sg38
F113.36309003829956
ssI21
(dp119
g21
F0.8618181818181818
sg22
g23
(g27
S'$\xfa\x8d\xc9\xddqE\xc0'
p120
tp121
Rp122
sg33
F0.8363636363636363
sg34
g37
sg38
F118.99489212036133
ssI22
(dp123
g21
F0.88
sg22
g23
(g27
S'$\xfa\x8d\xc9\xddqE\xc0'
p124
tp125
Rp126
sg33
F0.8581818181818182
sg34
g37
sg38
F124.76063799858093
ssI23
(dp127
g21
F0.8581818181818182
sg22
g23
(g27
S'$\xfa\x8d\xc9\xddqE\xc0'
p128
tp129
Rp130
sg33
F0.8472727272727273
sg34
g37
sg38
F130.54070806503296
ssI24
(dp131
g21
F0.8945454545454545
sg22
g23
(g27
S'$\xfa\x8d\xc9\xddqE\xc0'
p132
tp133
Rp134
sg33
F0.8654545454545455
sg34
g37
sg38
F136.3111879825592
ssI25
(dp135
g21
F0.8545454545454545
sg22
g23
(g27
S'$\xfa\x8d\xc9\xddqE\xc0'
p136
tp137
Rp138
sg33
F0.8254545454545454
sg34
g37
sg38
F142.05834698677063
ssI26
(dp139
g21
F0.8290909090909091
sg22
g23
(g27
S'$\xfa\x8d\xc9\xddqE\xc0'
p140
tp141
Rp142
sg33
F0.7963636363636364
sg34
g37
sg38
F147.85823798179626
ssI27
(dp143
g21
F0.9054545454545454
sg22
g23
(g27
S'$\xfa\x8d\xc9\xddqE\xc0'
p144
tp145
Rp146
sg33
F0.8981818181818182
sg34
g37
sg38
F153.5814790725708
ssI28
(dp147
g21
F0.92
sg22
g23
(g27
S'$\xfa\x8d\xc9\xddqE\xc0'
p148
tp149
Rp150
sg33
F0.8945454545454545
sg34
g37
sg38
F159.36505699157715
ssI29
(dp151
g21
F0.8436363636363636
sg22
g23
(g27
S'$\xfa\x8d\xc9\xddqE\xc0'
p152
tp153
Rp154
sg33
F0.8181818181818182
sg34
g37
sg38
F165.11403393745422
ssI30
(dp155
g21
F0.8618181818181818
sg22
g23
(g27
S'$\xfa\x8d\xc9\xddqE\xc0'
p156
tp157
Rp158
sg33
F0.8327272727272728
sg34
g37
sg38
F170.9109799861908
ssI31
(dp159
g21
F0.9054545454545454
sg22
g23
(g27
S'$\xfa\x8d\xc9\xddqE\xc0'
p160
tp161
Rp162
sg33
F0.8909090909090909
sg34
g37
sg38
F176.7133400440216
ssI32
(dp163
g21
F0.8945454545454545
sg22
g23
(g27
S'$\xfa\x8d\xc9\xddqE\xc0'
p164
tp165
Rp166
sg33
F0.88
sg34
g37
sg38
F182.5415871143341
ssI33
(dp167
g21
F0.88
sg22
g23
(g27
S'$\xfa\x8d\xc9\xddqE\xc0'
p168
tp169
Rp170
sg33
F0.8472727272727273
sg34
g37
sg38
F188.34101510047913
ssI34
(dp171
g21
F0.8654545454545455
sg22
g23
(g27
S'$\xfa\x8d\xc9\xddqE\xc0'
p172
tp173
Rp174
sg33
F0.850909090909091
sg34
g37
sg38
F194.15005803108215
ssI35
(dp175
g21
F0.9309090909090909
sg22
g23
(g27
S'$\xfa\x8d\xc9\xddqE\xc0'
p176
tp177
Rp178
sg33
F0.9236363636363636
sg34
g37
sg38
F199.9690079689026
ssI36
(dp179
g21
F0.9309090909090909
sg22
g23
(g27
S'$\xfa\x8d\xc9\xddqE\xc0'
p180
tp181
Rp182
sg33
F0.8981818181818182
sg34
g37
sg38
F205.79100489616394
ssI37
(dp183
g21
F0.9018181818181819
sg22
g23
(g27
S'$\xfa\x8d\xc9\xddqE\xc0'
p184
tp185
Rp186
sg33
F0.8763636363636363
sg34
g37
sg38
F211.58627891540527
ssI38
(dp187
g21
F0.9127272727272727
sg22
g23
(g27
S'$\xfa\x8d\xc9\xddqE\xc0'
p188
tp189
Rp190
sg33
F0.8945454545454545
sg34
g37
sg38
F217.40015411376953
ssI39
(dp191
g21
F0.9309090909090909
sg22
g23
(g27
S'$\xfa\x8d\xc9\xddqE\xc0'
p192
tp193
Rp194
sg33
F0.9236363636363636
sg34
g37
sg38
F223.24874091148376
ssI40
(dp195
g21
F0.92
sg22
g23
(g27
S'$\xfa\x8d\xc9\xddqE\xc0'
p196
tp197
Rp198
sg33
F0.8981818181818182
sg34
g37
sg38
F229.073410987854
ssI41
(dp199
g21
F0.9090909090909091
sg22
g23
(g27
S'$\xfa\x8d\xc9\xddqE\xc0'
p200
tp201
Rp202
sg33
F0.8945454545454545
sg34
g37
sg38
F234.877779006958
ssI42
(dp203
g21
F0.9527272727272728
sg22
g23
(g27
S'$\xfa\x8d\xc9\xddqE\xc0'
p204
tp205
Rp206
sg33
F0.9345454545454546
sg34
g37
sg38
F240.73059701919556
ssI43
(dp207
g21
F0.9381818181818182
sg22
g23
(g27
S'$\xfa\x8d\xc9\xddqE\xc0'
p208
tp209
Rp210
sg33
F0.9272727272727272
sg34
g37
sg38
F246.58166098594666
ssI44
(dp211
g21
F0.9418181818181818
sg22
g23
(g27
S'$\xfa\x8d\xc9\xddqE\xc0'
p212
tp213
Rp214
sg33
F0.9309090909090909
sg34
g37
sg38
F252.39930605888367
ssI45
(dp215
g21
F0.9236363636363636
sg22
g23
(g27
S'$\xfa\x8d\xc9\xddqE\xc0'
p216
tp217
Rp218
sg33
F0.92
sg34
g37
sg38
F258.2184579372406
ssI46
(dp219
g21
F0.9454545454545454
sg22
g23
(g27
S'$\xfa\x8d\xc9\xddqE\xc0'
p220
tp221
Rp222
sg33
F0.9272727272727272
sg34
g37
sg38
F264.0803129673004
ssI47
(dp223
g21
F0.9454545454545454
sg22
g23
(g27
S'$\xfa\x8d\xc9\xddqE\xc0'
p224
tp225
Rp226
sg33
F0.9236363636363636
sg34
g37
sg38
F269.91902709007263
ssI48
(dp227
g21
F0.9309090909090909
sg22
g23
(g27
S'$\xfa\x8d\xc9\xddqE\xc0'
p228
tp229
Rp230
sg33
F0.92
sg34
g37
sg38
F275.7451140880585
ssI49
(dp231
g21
F0.9563636363636364
sg22
g23
(g27
S'$\xfa\x8d\xc9\xddqE\xc0'
p232
tp233
Rp234
sg33
F0.9527272727272728
sg34
g37
sg38
F281.58417892456055
ssI50
(dp235
g21
F0.9418181818181818
sg22
g23
(g27
S'$\xfa\x8d\xc9\xddqE\xc0'
p236
tp237
Rp238
sg33
F0.9309090909090909
sg34
g37
sg38
F287.4116270542145
ssI51
(dp239
g21
F0.9636363636363636
sg22
g23
(g27
S'$\xfa\x8d\xc9\xddqE\xc0'
p240
tp241
Rp242
sg33
F0.9490909090909091
sg34
g37
sg38
F293.2300190925598
ssI52
(dp243
g21
F0.9563636363636364
sg22
g23
(g27
S'$\xfa\x8d\xc9\xddqE\xc0'
p244
tp245
Rp246
sg33
F0.9454545454545454
sg34
g37
sg38
F299.1061370372772
ssI53
(dp247
g21
F0.9309090909090909
sg22
g23
(g27
S'$\xfa\x8d\xc9\xddqE\xc0'
p248
tp249
Rp250
sg33
F0.9272727272727272
sg34
g37
sg38
F304.9355230331421
ssI54
(dp251
g21
F0.9709090909090909
sg22
g23
(g27
S'$\xfa\x8d\xc9\xddqE\xc0'
p252
tp253
Rp254
sg33
F0.9490909090909091
sg34
g37
sg38
F310.7706289291382
ssI55
(dp255
g21
F0.9454545454545454
sg22
g23
(g27
S'$\xfa\x8d\xc9\xddqE\xc0'
p256
tp257
Rp258
sg33
F0.9418181818181818
sg34
g37
sg38
F316.6295609474182
ssI56
(dp259
g21
F0.9672727272727273
sg22
g23
(g27
S'$\xfa\x8d\xc9\xddqE\xc0'
p260
tp261
Rp262
sg33
F0.9490909090909091
sg34
g37
sg38
F322.4629590511322
ssI57
(dp263
g21
F0.9345454545454546
sg22
g23
(g27
S'$\xfa\x8d\xc9\xddqE\xc0'
p264
tp265
Rp266
sg33
F0.9163636363636364
sg34
g37
sg38
F328.2825241088867
ssI58
(dp267
g21
F0.9454545454545454
sg22
g23
(g27
S'$\xfa\x8d\xc9\xddqE\xc0'
p268
tp269
Rp270
sg33
F0.9381818181818182
sg34
g37
sg38
F334.10446190834045
ssI59
(dp271
g21
F0.9490909090909091
sg22
g23
(g27
S'$\xfa\x8d\xc9\xddqE\xc0'
p272
tp273
Rp274
sg33
F0.9418181818181818
sg34
g37
sg38
F339.9199249744415
ssI60
(dp275
g21
F0.9309090909090909
sg22
g23
(g27
S'$\xfa\x8d\xc9\xddqE\xc0'
p276
tp277
Rp278
sg33
F0.9163636363636364
sg34
g37
sg38
F345.7718861103058
ssI61
(dp279
g21
F0.9527272727272728
sg22
g23
(g27
S'$\xfa\x8d\xc9\xddqE\xc0'
p280
tp281
Rp282
sg33
F0.92
sg34
g37
sg38
F351.62591004371643
ssI62
(dp283
g21
F0.96
sg22
g23
(g27
S'$\xfa\x8d\xc9\xddqE\xc0'
p284
tp285
Rp286
sg33
F0.9563636363636364
sg34
g37
sg38
F357.42671394348145
ssI63
(dp287
g21
F0.9636363636363636
sg22
g23
(g27
S'$\xfa\x8d\xc9\xddqE\xc0'
p288
tp289
Rp290
sg33
F0.9563636363636364
sg34
g37
sg38
F363.2842609882355
ssI64
(dp291
g21
F0.92
sg22
g23
(g27
S'$\xfa\x8d\xc9\xddqE\xc0'
p292
tp293
Rp294
sg33
F0.9090909090909091
sg34
g37
sg38
F369.11368703842163
ssI65
(dp295
g21
F0.9309090909090909
sg22
g23
(g27
S'$\xfa\x8d\xc9\xddqE\xc0'
p296
tp297
Rp298
sg33
F0.9272727272727272
sg34
g37
sg38
F374.94105291366577
ssI66
(dp299
g21
F0.9490909090909091
sg22
g23
(g27
S'$\xfa\x8d\xc9\xddqE\xc0'
p300
tp301
Rp302
sg33
F0.9454545454545454
sg34
g37
sg38
F380.80501794815063
ssI67
(dp303
g21
F0.9672727272727273
sg22
g23
(g27
S'$\xfa\x8d\xc9\xddqE\xc0'
p304
tp305
Rp306
sg33
F0.9490909090909091
sg34
g37
sg38
F386.63596391677856
ssI68
(dp307
g21
F0.9309090909090909
sg22
g23
(g27
S'$\xfa\x8d\xc9\xddqE\xc0'
p308
tp309
Rp310
sg33
F0.9236363636363636
sg34
g37
sg38
F392.4583249092102
ssI69
(dp311
g21
F0.9345454545454546
sg22
g23
(g27
S'$\xfa\x8d\xc9\xddqE\xc0'
p312
tp313
Rp314
sg33
F0.9163636363636364
sg34
g37
sg38
F398.3167040348053
ssI70
(dp315
g21
F0.9709090909090909
sg22
g23
(g27
S'$\xfa\x8d\xc9\xddqE\xc0'
p316
tp317
Rp318
sg33
F0.9672727272727273
sg34
g37
sg38
F404.15098810195923
ssI71
(dp319
g21
F0.96
sg22
g23
(g27
S'$\xfa\x8d\xc9\xddqE\xc0'
p320
tp321
Rp322
sg33
F0.9527272727272728
sg34
g37
sg38
F409.9799599647522
ssI72
(dp323
g21
F0.9527272727272728
sg22
g23
(g27
S'$\xfa\x8d\xc9\xddqE\xc0'
p324
tp325
Rp326
sg33
F0.92
sg34
g37
sg38
F415.85235500335693
ssI73
(dp327
g21
F0.9527272727272728
sg22
g23
(g27
S'$\xfa\x8d\xc9\xddqE\xc0'
p328
tp329
Rp330
sg33
F0.9418181818181818
sg34
g37
sg38
F421.7048079967499
ssI74
(dp331
g21
F0.9818181818181818
sg22
g23
(g27
S'$\xfa\x8d\xc9\xddqE\xc0'
p332
tp333
Rp334
sg33
F0.9745454545454545
sg34
g37
sg38
F427.53681206703186
ssI75
(dp335
g21
F0.9454545454545454
sg22
g23
(g27
S'$\xfa\x8d\xc9\xddqE\xc0'
p336
tp337
Rp338
sg33
F0.9418181818181818
sg34
g37
sg38
F433.3974668979645
ssI76
(dp339
g21
F0.9636363636363636
sg22
g23
(g27
S'$\xfa\x8d\xc9\xddqE\xc0'
p340
tp341
Rp342
sg33
F0.9563636363636364
sg34
g37
sg38
F439.2257750034332
ssI77
(dp343
g21
F0.9563636363636364
sg22
g23
(g27
S'$\xfa\x8d\xc9\xddqE\xc0'
p344
tp345
Rp346
sg33
F0.9527272727272728
sg34
g37
sg38
F445.05079197883606
ssI78
(dp347
g21
F0.9563636363636364
sg22
g23
(g27
S'$\xfa\x8d\xc9\xddqE\xc0'
p348
tp349
Rp350
sg33
F0.9345454545454546
sg34
g37
sg38
F450.92075395584106
ssI79
(dp351
g21
F0.9745454545454545
sg22
g23
(g27
S'$\xfa\x8d\xc9\xddqE\xc0'
p352
tp353
Rp354
sg33
F0.9636363636363636
sg34
g37
sg38
F456.76015996932983
ssI80
(dp355
g21
F0.9709090909090909
sg22
g23
(g27
S'$\xfa\x8d\xc9\xddqE\xc0'
p356
tp357
Rp358
sg33
F0.9490909090909091
sg34
g37
sg38
F462.6097469329834
ssI81
(dp359
g21
F0.96
sg22
g23
(g27
S'$\xfa\x8d\xc9\xddqE\xc0'
p360
tp361
Rp362
sg33
F0.9490909090909091
sg34
g37
sg38
F468.47846698760986
ssI82
(dp363
g21
F0.9745454545454545
sg22
g23
(g27
S'$\xfa\x8d\xc9\xddqE\xc0'
p364
tp365
Rp366
sg33
F0.9672727272727273
sg34
g37
sg38
F474.32488107681274
ssI83
(dp367
g21
F0.9781818181818182
sg22
g23
(g27
S'$\xfa\x8d\xc9\xddqE\xc0'
p368
tp369
Rp370
sg33
F0.9781818181818182
sg34
g37
sg38
F480.18006801605225
ssI84
(dp371
g21
F0.9709090909090909
sg22
g23
(g27
S'$\xfa\x8d\xc9\xddqE\xc0'
p372
tp373
Rp374
sg33
F0.9490909090909091
sg34
g37
sg38
F486.04649806022644
ssI85
(dp375
g21
F0.9527272727272728
sg22
g23
(g27
S'$\xfa\x8d\xc9\xddqE\xc0'
p376
tp377
Rp378
sg33
F0.9418181818181818
sg34
g37
sg38
F491.88598704338074
ssI86
(dp379
g21
F0.9745454545454545
sg22
g23
(g27
S'$\xfa\x8d\xc9\xddqE\xc0'
p380
tp381
Rp382
sg33
F0.96
sg34
g37
sg38
F497.71272110939026
ssI87
(dp383
g21
F0.9818181818181818
sg22
g23
(g27
S'$\xfa\x8d\xc9\xddqE\xc0'
p384
tp385
Rp386
sg33
F0.9745454545454545
sg34
g37
sg38
F503.49500489234924
ssI88
(dp387
g21
F0.9709090909090909
sg22
g23
(g27
S'$\xfa\x8d\xc9\xddqE\xc0'
p388
tp389
Rp390
sg33
F0.9527272727272728
sg34
g37
sg38
F509.2691259384155
ssI89
(dp391
g21
F0.9563636363636364
sg22
g23
(g27
S'$\xfa\x8d\xc9\xddqE\xc0'
p392
tp393
Rp394
sg33
F0.9490909090909091
sg34
g37
sg38
F515.0582931041718
ssI90
(dp395
g21
F0.9854545454545455
sg22
g23
(g27
S'$\xfa\x8d\xc9\xddqE\xc0'
p396
tp397
Rp398
sg33
F0.9709090909090909
sg34
g37
sg38
F520.8335340023041
ssI91
(dp399
g21
F0.9745454545454545
sg22
g23
(g27
S'$\xfa\x8d\xc9\xddqE\xc0'
p400
tp401
Rp402
sg33
F0.9636363636363636
sg34
g37
sg38
F526.6003530025482
ssI92
(dp403
g21
F0.9745454545454545
sg22
g23
(g27
S'$\xfa\x8d\xc9\xddqE\xc0'
p404
tp405
Rp406
sg33
F0.9709090909090909
sg34
g37
sg38
F532.3866291046143
ssI93
(dp407
g21
F0.9527272727272728
sg22
g23
(g27
S'$\xfa\x8d\xc9\xddqE\xc0'
p408
tp409
Rp410
sg33
F0.9490909090909091
sg34
g37
sg38
F538.1628139019012
ssI94
(dp411
g21
F0.9709090909090909
sg22
g23
(g27
S'$\xfa\x8d\xc9\xddqE\xc0'
p412
tp413
Rp414
sg33
F0.96
sg34
g37
sg38
F543.918653011322
ssI95
(dp415
g21
F0.9709090909090909
sg22
g23
(g27
S'$\xfa\x8d\xc9\xddqE\xc0'
p416
tp417
Rp418
sg33
F0.9636363636363636
sg34
g37
sg38
F549.713819026947
ssI96
(dp419
g21
F0.9781818181818182
sg22
g23
(g27
S'$\xfa\x8d\xc9\xddqE\xc0'
p420
tp421
Rp422
sg33
F0.9636363636363636
sg34
g37
sg38
F555.4660549163818
ssI97
(dp423
g21
F0.9745454545454545
sg22
g23
(g27
S'$\xfa\x8d\xc9\xddqE\xc0'
p424
tp425
Rp426
sg33
F0.9563636363636364
sg34
g37
sg38
F561.2473049163818
ssI98
(dp427
g21
F0.9745454545454545
sg22
g23
(g27
S'$\xfa\x8d\xc9\xddqE\xc0'
p428
tp429
Rp430
sg33
F0.9527272727272728
sg34
g37
sg38
F567.0584070682526
ssI99
(dp431
g21
F0.9709090909090909
sg22
g23
(g27
S'$\xfa\x8d\xc9\xddqE\xc0'
p432
tp433
Rp434
sg33
F0.9672727272727273
sg34
g37
sg38
F572.8268840312958
ssI100
(dp435
g21
F0.9818181818181818
sg22
g23
(g27
S'$\xfa\x8d\xc9\xddqE\xc0'
p436
tp437
Rp438
sg33
F0.9672727272727273
sg34
g37
sg38
F578.5979499816895
ssI101
(dp439
g21
F0.9709090909090909
sg22
g23
(g27
S'$\xfa\x8d\xc9\xddqE\xc0'
p440
tp441
Rp442
sg33
F0.9636363636363636
sg34
g37
sg38
F584.4012870788574
ssI102
(dp443
g21
F0.9636363636363636
sg22
g23
(g27
S'$\xfa\x8d\xc9\xddqE\xc0'
p444
tp445
Rp446
sg33
F0.9490909090909091
sg34
g37
sg38
F590.1612539291382
ssI103
(dp447
g21
F0.96
sg22
g23
(g27
S'$\xfa\x8d\xc9\xddqE\xc0'
p448
tp449
Rp450
sg33
F0.96
sg34
g37
sg38
F595.9538180828094
ssI104
(dp451
g21
F0.9854545454545455
sg22
g23
(g27
S'$\xfa\x8d\xc9\xddqE\xc0'
p452
tp453
Rp454
sg33
F0.9818181818181818
sg34
g37
sg38
F601.7650949954987
ssI105
(dp455
g21
F0.9672727272727273
sg22
g23
(g27
S'$\xfa\x8d\xc9\xddqE\xc0'
p456
tp457
Rp458
sg33
F0.9527272727272728
sg34
g37
sg38
F607.5374579429626
ssI106
(dp459
g21
F0.9709090909090909
sg22
g23
(g27
S'$\xfa\x8d\xc9\xddqE\xc0'
p460
tp461
Rp462
sg33
F0.9636363636363636
sg34
g37
sg38
F613.3542900085449
ssI107
(dp463
g21
F0.9745454545454545
sg22
g23
(g27
S'$\xfa\x8d\xc9\xddqE\xc0'
p464
tp465
Rp466
sg33
F0.9563636363636364
sg34
g37
sg38
F619.1379239559174
ssI108
(dp467
g21
F0.9781818181818182
sg22
g23
(g27
S'$\xfa\x8d\xc9\xddqE\xc0'
p468
tp469
Rp470
sg33
F0.96
sg34
g37
sg38
F623.3535630702972
ssI109
(dp471
g21
F0.9672727272727273
sg22
g23
(g27
S'$\xfa\x8d\xc9\xddqE\xc0'
p472
tp473
Rp474
sg33
F0.9636363636363636
sg34
g37
sg38
F626.5227329730988
ssI110
(dp475
g21
F0.9745454545454545
sg22
g23
(g27
S'$\xfa\x8d\xc9\xddqE\xc0'
p476
tp477
Rp478
sg33
F0.9709090909090909
sg34
g37
sg38
F629.6654829978943
ssI111
(dp479
g21
F0.9854545454545455
sg22
g23
(g27
S'$\xfa\x8d\xc9\xddqE\xc0'
p480
tp481
Rp482
sg33
F0.9745454545454545
sg34
g37
sg38
F632.8021619319916
ssI112
(dp483
g21
F0.9709090909090909
sg22
g23
(g27
S'$\xfa\x8d\xc9\xddqE\xc0'
p484
tp485
Rp486
sg33
F0.9709090909090909
sg34
g37
sg38
F635.9535241127014
ssI113
(dp487
g21
F0.9781818181818182
sg22
g23
(g27
S'$\xfa\x8d\xc9\xddqE\xc0'
p488
tp489
Rp490
sg33
F0.96
sg34
g37
sg38
F639.1207220554352
ssI114
(dp491
g21
F0.9818181818181818
sg22
g23
(g27
S'$\xfa\x8d\xc9\xddqE\xc0'
p492
tp493
Rp494
sg33
F0.9636363636363636
sg34
g37
sg38
F642.2635769844055
ssI115
(dp495
g21
F0.9854545454545455
sg22
g23
(g27
S'$\xfa\x8d\xc9\xddqE\xc0'
p496
tp497
Rp498
sg33
F0.9781818181818182
sg34
g37
sg38
F645.4040169715881
ssI116
(dp499
g21
F0.9854545454545455
sg22
g23
(g27
S'$\xfa\x8d\xc9\xddqE\xc0'
p500
tp501
Rp502
sg33
F0.9818181818181818
sg34
g37
sg38
F648.5236520767212
ssI117
(dp503
g21
F0.9636363636363636
sg22
g23
(g27
S'$\xfa\x8d\xc9\xddqE\xc0'
p504
tp505
Rp506
sg33
F0.9563636363636364
sg34
g37
sg38
F651.6428909301758
ssI118
(dp507
g21
F0.9636363636363636
sg22
g23
(g27
S'$\xfa\x8d\xc9\xddqE\xc0'
p508
tp509
Rp510
sg33
F0.9454545454545454
sg34
g37
sg38
F654.7839820384979
ssI119
(dp511
g21
F0.9854545454545455
sg22
g23
(g27
S'$\xfa\x8d\xc9\xddqE\xc0'
p512
tp513
Rp514
sg33
F0.9672727272727273
sg34
g37
sg38
F658.5089070796967
ssI120
(dp515
g21
F0.9818181818181818
sg22
g23
(g27
S'$\xfa\x8d\xc9\xddqE\xc0'
p516
tp517
Rp518
sg33
F0.9818181818181818
sg34
g37
sg38
F664.0356879234314
ssI121
(dp519
g21
F0.9927272727272727
sg22
g23
(g27
S'$\xfa\x8d\xc9\xddqE\xc0'
p520
tp521
Rp522
sg33
F0.9781818181818182
sg34
g37
sg38
F669.5948169231415
ssI122
(dp523
g21
F0.9563636363636364
sg22
g23
(g27
S'$\xfa\x8d\xc9\xddqE\xc0'
p524
tp525
Rp526
sg33
F0.9490909090909091
sg34
g37
sg38
F675.1777710914612
ssI123
(dp527
g21
F0.9745454545454545
sg22
g23
(g27
S'$\xfa\x8d\xc9\xddqE\xc0'
p528
tp529
Rp530
sg33
F0.9636363636363636
sg34
g37
sg38
F680.7948379516602
ssI124
(dp531
g21
F0.9854545454545455
sg22
g23
(g27
S'$\xfa\x8d\xc9\xddqE\xc0'
p532
tp533
Rp534
sg33
F0.9818181818181818
sg34
g37
sg38
F686.3848230838776
ssI125
(dp535
g21
F0.9854545454545455
sg22
g23
(g27
S'$\xfa\x8d\xc9\xddqE\xc0'
p536
tp537
Rp538
sg33
F0.9818181818181818
sg34
g37
sg38
F691.9753539562225
ssI126
(dp539
g21
F0.9672727272727273
sg22
g23
(g27
S'$\xfa\x8d\xc9\xddqE\xc0'
p540
tp541
Rp542
sg33
F0.9563636363636364
sg34
g37
sg38
F697.5968749523163
ssI127
(dp543
g21
F0.9672727272727273
sg22
g23
(g27
S'$\xfa\x8d\xc9\xddqE\xc0'
p544
tp545
Rp546
sg33
F0.9490909090909091
sg34
g37
sg38
F703.2140901088715
ssI128
(dp547
g21
F0.9745454545454545
sg22
g23
(g27
S'$\xfa\x8d\xc9\xddqE\xc0'
p548
tp549
Rp550
sg33
F0.9672727272727273
sg34
g37
sg38
F708.7606880664825
ssI129
(dp551
g21
F0.9818181818181818
sg22
g23
(g27
S'$\xfa\x8d\xc9\xddqE\xc0'
p552
tp553
Rp554
sg33
F0.9818181818181818
sg34
g37
sg38
F714.35884308815
ssI130
(dp555
g21
F0.9890909090909091
sg22
g23
(g27
S'$\xfa\x8d\xc9\xddqE\xc0'
p556
tp557
Rp558
sg33
F0.9890909090909091
sg34
g37
sg38
F719.9820759296417
ssI131
(dp559
g21
F0.9709090909090909
sg22
g23
(g27
S'$\xfa\x8d\xc9\xddqE\xc0'
p560
tp561
Rp562
sg33
F0.9563636363636364
sg34
g37
sg38
F725.5355060100555
ssI132
(dp563
g21
F0.9927272727272727
sg22
g23
(g27
S'$\xfa\x8d\xc9\xddqE\xc0'
p564
tp565
Rp566
sg33
F0.9709090909090909
sg34
g37
sg38
F731.1411271095276
ssI133
(dp567
g21
F0.9709090909090909
sg22
g23
(g27
S'$\xfa\x8d\xc9\xddqE\xc0'
p568
tp569
Rp570
sg33
F0.9709090909090909
sg34
g37
sg38
F736.6978170871735
ssI134
(dp571
g21
F0.9854545454545455
sg22
g23
(g27
S'$\xfa\x8d\xc9\xddqE\xc0'
p572
tp573
Rp574
sg33
F0.9709090909090909
sg34
g37
sg38
F742.2707850933075
ssI135
(dp575
g21
F0.9745454545454545
sg22
g23
(g27
S'$\xfa\x8d\xc9\xddqE\xc0'
p576
tp577
Rp578
sg33
F0.96
sg34
g37
sg38
F747.8688349723816
ssI136
(dp579
g21
F0.9672727272727273
sg22
g23
(g27
S'$\xfa\x8d\xc9\xddqE\xc0'
p580
tp581
Rp582
sg33
F0.96
sg34
g37
sg38
F753.429496049881
ssI137
(dp583
g21
F0.9854545454545455
sg22
g23
(g27
S'$\xfa\x8d\xc9\xddqE\xc0'
p584
tp585
Rp586
sg33
F0.9854545454545455
sg34
g37
sg38
F758.9882941246033
ssI138
(dp587
g21
F0.9709090909090909
sg22
g23
(g27
S'$\xfa\x8d\xc9\xddqE\xc0'
p588
tp589
Rp590
sg33
F0.9636363636363636
sg34
g37
sg38
F764.5811219215393
ssI139
(dp591
g21
F0.9781818181818182
sg22
g23
(g27
S'$\xfa\x8d\xc9\xddqE\xc0'
p592
tp593
Rp594
sg33
F0.9672727272727273
sg34
g37
sg38
F770.1352000236511
ssI140
(dp595
g21
F0.9745454545454545
sg22
g23
(g27
S'$\xfa\x8d\xc9\xddqE\xc0'
p596
tp597
Rp598
sg33
F0.9636363636363636
sg34
g37
sg38
F775.6782350540161
ssI141
(dp599
g21
F0.9818181818181818
sg22
g23
(g27
S'$\xfa\x8d\xc9\xddqE\xc0'
p600
tp601
Rp602
sg33
F0.9709090909090909
sg34
g37
sg38
F781.2788510322571
ssI142
(dp603
g21
F0.9854545454545455
sg22
g23
(g27
S'$\xfa\x8d\xc9\xddqE\xc0'
p604
tp605
Rp606
sg33
F0.9781818181818182
sg34
g37
sg38
F786.8460550308228
ssI143
(dp607
g21
F0.9854545454545455
sg22
g23
(g27
S'$\xfa\x8d\xc9\xddqE\xc0'
p608
tp609
Rp610
sg33
F0.9818181818181818
sg34
g37
sg38
F792.401015996933
ssI144
(dp611
g21
F0.9636363636363636
sg22
g23
(g27
S'$\xfa\x8d\xc9\xddqE\xc0'
p612
tp613
Rp614
sg33
F0.9527272727272728
sg34
g37
sg38
F797.9824419021606
ssI145
(dp615
g21
F0.9672727272727273
sg22
g23
(g27
S'$\xfa\x8d\xc9\xddqE\xc0'
p616
tp617
Rp618
sg33
F0.9418181818181818
sg34
g37
sg38
F803.5465500354767
ssI146
(dp619
g21
F0.9781818181818182
sg22
g23
(g27
S'$\xfa\x8d\xc9\xddqE\xc0'
p620
tp621
Rp622
sg33
F0.9672727272727273
sg34
g37
sg38
F809.1229910850525
ssI147
(dp623
g21
F0.9854545454545455
sg22
g23
(g27
S'$\xfa\x8d\xc9\xddqE\xc0'
p624
tp625
Rp626
sg33
F0.9818181818181818
sg34
g37
sg38
F814.7295560836792
ssI148
(dp627
g21
F0.9854545454545455
sg22
g23
(g27
S'$\xfa\x8d\xc9\xddqE\xc0'
p628
tp629
Rp630
sg33
F0.9854545454545455
sg34
g37
sg38
F820.2763259410858
ssI149
(dp631
g21
F0.9781818181818182
sg22
g23
(g27
S'$\xfa\x8d\xc9\xddqE\xc0'
p632
tp633
Rp634
sg33
F0.9781818181818182
sg34
g37
sg38
F825.8152229785919
ssI150
(dp635
g21
F0.9745454545454545
sg22
g23
(g27
S'$\xfa\x8d\xc9\xddqE\xc0'
p636
tp637
Rp638
sg33
F0.9636363636363636
sg34
g37
sg38
F831.387363910675
ssI151
(dp639
g21
F0.9818181818181818
sg22
g23
(g27
S'$\xfa\x8d\xc9\xddqE\xc0'
p640
tp641
Rp642
sg33
F0.9672727272727273
sg34
g37
sg38
F836.9264659881592
ssI152
(dp643
g21
F0.9927272727272727
sg22
g23
(g27
S'$\xfa\x8d\xc9\xddqE\xc0'
p644
tp645
Rp646
sg33
F0.9781818181818182
sg34
g37
sg38
F842.4548029899597
ssI153
(dp647
g21
F0.9927272727272727
sg22
g23
(g27
S'$\xfa\x8d\xc9\xddqE\xc0'
p648
tp649
Rp650
sg33
F0.9818181818181818
sg34
g37
sg38
F847.9968481063843
ssI154
(dp651
g21
F0.9854545454545455
sg22
g23
(g27
S'$\xfa\x8d\xc9\xddqE\xc0'
p652
tp653
Rp654
sg33
F0.9745454545454545
sg34
g37
sg38
F853.5254859924316
ssI155
(dp655
g21
F0.9818181818181818
sg22
g23
(g27
S'$\xfa\x8d\xc9\xddqE\xc0'
p656
tp657
Rp658
sg33
F0.9672727272727273
sg34
g37
sg38
F859.0492820739746
ssI156
(dp659
g21
F0.9854545454545455
sg22
g23
(g27
S'$\xfa\x8d\xc9\xddqE\xc0'
p660
tp661
Rp662
sg33
F0.9709090909090909
sg34
g37
sg38
F864.6012990474701
ssI157
(dp663
g21
F0.9890909090909091
sg22
g23
(g27
S'$\xfa\x8d\xc9\xddqE\xc0'
p664
tp665
Rp666
sg33
F0.9890909090909091
sg34
g37
sg38
F870.1250629425049
ssI158
(dp667
g21
F0.9927272727272727
sg22
g23
(g27
S'$\xfa\x8d\xc9\xddqE\xc0'
p668
tp669
Rp670
sg33
F0.9781818181818182
sg34
g37
sg38
F875.6534640789032
ssI159
(dp671
g21
F0.9818181818181818
sg22
g23
(g27
S'$\xfa\x8d\xc9\xddqE\xc0'
p672
tp673
Rp674
sg33
F0.9781818181818182
sg34
g37
sg38
F881.210520029068
ssI160
(dp675
g21
F0.9854545454545455
sg22
g23
(g27
S'$\xfa\x8d\xc9\xddqE\xc0'
p676
tp677
Rp678
sg33
F0.9781818181818182
sg34
g37
sg38
F886.7337749004364
ssI161
(dp679
g21
F0.9818181818181818
sg22
g23
(g27
S'$\xfa\x8d\xc9\xddqE\xc0'
p680
tp681
Rp682
sg33
F0.9781818181818182
sg34
g37
sg38
F892.2680790424347
ssI162
(dp683
g21
F0.9927272727272727
sg22
g23
(g27
S'$\xfa\x8d\xc9\xddqE\xc0'
p684
tp685
Rp686
sg33
F0.9890909090909091
sg34
g37
sg38
F897.7674460411072
ssI163
(dp687
g21
F0.9890909090909091
sg22
g23
(g27
S'$\xfa\x8d\xc9\xddqE\xc0'
p688
tp689
Rp690
sg33
F0.9818181818181818
sg34
g37
sg38
F903.2587490081787
ssI164
(dp691
g21
F0.9854545454545455
sg22
g23
(g27
S'$\xfa\x8d\xc9\xddqE\xc0'
p692
tp693
Rp694
sg33
F0.9745454545454545
sg34
g37
sg38
F908.7570021152496
ssI165
(dp695
g21
F0.9963636363636363
sg22
g23
(g27
S'$\xfa\x8d\xc9\xddqE\xc0'
p696
tp697
Rp698
sg33
F0.9709090909090909
sg34
g37
sg38
F914.2335939407349
ssI166
(dp699
g21
F0.9781818181818182
sg22
g23
(g27
S'$\xfa\x8d\xc9\xddqE\xc0'
p700
tp701
Rp702
sg33
F0.9745454545454545
sg34
g37
sg38
F919.7068190574646
ssI167
(dp703
g21
F0.9927272727272727
sg22
g23
(g27
S'$\xfa\x8d\xc9\xddqE\xc0'
p704
tp705
Rp706
sg33
F0.9818181818181818
sg34
g37
sg38
F925.2081429958344
ssI168
(dp707
g21
F0.9927272727272727
sg22
g23
(g27
S'$\xfa\x8d\xc9\xddqE\xc0'
p708
tp709
Rp710
sg33
F0.9818181818181818
sg34
g37
sg38
F930.6821141242981
ssI169
(dp711
g21
F0.9781818181818182
sg22
g23
(g27
S'$\xfa\x8d\xc9\xddqE\xc0'
p712
tp713
Rp714
sg33
F0.9781818181818182
sg34
g37
sg38
F936.1547439098358
ssI170
(dp715
g21
F0.9963636363636363
sg22
g23
(g27
S'$\xfa\x8d\xc9\xddqE\xc0'
p716
tp717
Rp718
sg33
F0.9890909090909091
sg34
g37
sg38
F941.661092042923
ssI171
(dp719
g21
F0.9781818181818182
sg22
g23
(g27
S'$\xfa\x8d\xc9\xddqE\xc0'
p720
tp721
Rp722
sg33
F0.9745454545454545
sg34
g37
sg38
F947.1357119083405
ssI172
(dp723
g21
F0.9854545454545455
sg22
g23
(g27
S'$\xfa\x8d\xc9\xddqE\xc0'
p724
tp725
Rp726
sg33
F0.9745454545454545
sg34
g37
sg38
F952.6111459732056
ssI173
(dp727
g21
F0.9927272727272727
sg22
g23
(g27
S'$\xfa\x8d\xc9\xddqE\xc0'
p728
tp729
Rp730
sg33
F0.9745454545454545
sg34
g37
sg38
F958.1328670978546
ssI174
(dp731
g21
F0.9709090909090909
sg22
g23
(g27
S'$\xfa\x8d\xc9\xddqE\xc0'
p732
tp733
Rp734
sg33
F0.9709090909090909
sg34
g37
sg38
F963.6119780540466
ssI175
(dp735
g21
F0.9927272727272727
sg22
g23
(g27
S'$\xfa\x8d\xc9\xddqE\xc0'
p736
tp737
Rp738
sg33
F0.9781818181818182
sg34
g37
sg38
F969.0923049449921
ssI176
(dp739
g21
F0.9890909090909091
sg22
g23
(g27
S'$\xfa\x8d\xc9\xddqE\xc0'
p740
tp741
Rp742
sg33
F0.9781818181818182
sg34
g37
sg38
F974.6078789234161
ssI177
(dp743
g21
F0.9781818181818182
sg22
g23
(g27
S'$\xfa\x8d\xc9\xddqE\xc0'
p744
tp745
Rp746
sg33
F0.9781818181818182
sg34
g37
sg38
F980.0921120643616
ssI178
(dp747
g21
F0.9963636363636363
sg22
g23
(g27
S'$\xfa\x8d\xc9\xddqE\xc0'
p748
tp749
Rp750
sg33
F0.9854545454545455
sg34
g37
sg38
F985.5770189762115
ssI179
(dp751
g21
F0.9854545454545455
sg22
g23
(g27
S'$\xfa\x8d\xc9\xddqE\xc0'
p752
tp753
Rp754
sg33
F0.9781818181818182
sg34
g37
sg38
F991.0765669345856
ssI180
(dp755
g21
F0.9854545454545455
sg22
g23
(g27
S'$\xfa\x8d\xc9\xddqE\xc0'
p756
tp757
Rp758
sg33
F0.9818181818181818
sg34
g37
sg38
F996.5217390060425
ssI181
(dp759
g21
F0.9927272727272727
sg22
g23
(g27
S'$\xfa\x8d\xc9\xddqE\xc0'
p760
tp761
Rp762
sg33
F0.9927272727272727
sg34
g37
sg38
F1001.9822199344635
ssI182
(dp763
g21
F0.9818181818181818
sg22
g23
(g27
S'$\xfa\x8d\xc9\xddqE\xc0'
p764
tp765
Rp766
sg33
F0.9781818181818182
sg34
g37
sg38
F1007.463751077652
ssI183
(dp767
g21
F0.9818181818181818
sg22
g23
(g27
S'$\xfa\x8d\xc9\xddqE\xc0'
p768
tp769
Rp770
sg33
F0.9745454545454545
sg34
g37
sg38
F1012.9107670783997
ssI184
(dp771
g21
F0.9854545454545455
sg22
g23
(g27
S'$\xfa\x8d\xc9\xddqE\xc0'
p772
tp773
Rp774
sg33
F0.9745454545454545
sg34
g37
sg38
F1018.3795430660248
ssI185
(dp775
g21
F0.9745454545454545
sg22
g23
(g27
S'$\xfa\x8d\xc9\xddqE\xc0'
p776
tp777
Rp778
sg33
F0.9745454545454545
sg34
g37
sg38
F1023.8463881015778
ssI186
(dp779
g21
F0.9890909090909091
sg22
g23
(g27
S'$\xfa\x8d\xc9\xddqE\xc0'
p780
tp781
Rp782
sg33
F0.9890909090909091
sg34
g37
sg38
F1029.28262591362
ssI187
(dp783
g21
F0.9927272727272727
sg22
g23
(g27
S'$\xfa\x8d\xc9\xddqE\xc0'
p784
tp785
Rp786
sg33
F0.9781818181818182
sg34
g37
sg38
F1034.6968669891357
ssI188
(dp787
g21
F0.9781818181818182
sg22
g23
(g27
S'$\xfa\x8d\xc9\xddqE\xc0'
p788
tp789
Rp790
sg33
F0.9745454545454545
sg34
g37
sg38
F1040.1632199287415
ssI189
(dp791
g21
F0.9963636363636363
sg22
g23
(g27
S'$\xfa\x8d\xc9\xddqE\xc0'
p792
tp793
Rp794
sg33
F0.9636363636363636
sg34
g37
sg38
F1045.6260330677032
ssI190
(dp795
g21
F0.9781818181818182
sg22
g23
(g27
S'$\xfa\x8d\xc9\xddqE\xc0'
p796
tp797
Rp798
sg33
F0.9781818181818182
sg34
g37
sg38
F1051.0431869029999
ssI191
(dp799
g21
F0.9927272727272727
sg22
g23
(g27
S'$\xfa\x8d\xc9\xddqE\xc0'
p800
tp801
Rp802
sg33
F0.9854545454545455
sg34
g37
sg38
F1056.5122349262238
ssI192
(dp803
g21
F0.9890909090909091
sg22
g23
(g27
S'$\xfa\x8d\xc9\xddqE\xc0'
p804
tp805
Rp806
sg33
F0.9890909090909091
sg34
g37
sg38
F1061.9906949996948
ssI193
(dp807
g21
F0.9890909090909091
sg22
g23
(g27
S'$\xfa\x8d\xc9\xddqE\xc0'
p808
tp809
Rp810
sg33
F0.9672727272727273
sg34
g37
sg38
F1067.403666973114
ssI194
(dp811
g21
F0.9745454545454545
sg22
g23
(g27
S'$\xfa\x8d\xc9\xddqE\xc0'
p812
tp813
Rp814
sg33
F0.9672727272727273
sg34
g37
sg38
F1072.9000399112701
ssI195
(dp815
g21
F0.9890909090909091
sg22
g23
(g27
S'$\xfa\x8d\xc9\xddqE\xc0'
p816
tp817
Rp818
sg33
F0.9672727272727273
sg34
g37
sg38
F1078.357074022293
ssI196
(dp819
g21
F0.9854545454545455
sg22
g23
(g27
S'$\xfa\x8d\xc9\xddqE\xc0'
p820
tp821
Rp822
sg33
F0.9781818181818182
sg34
g37
sg38
F1083.7737700939178
ssI197
(dp823
g21
F0.9890909090909091
sg22
g23
(g27
S'$\xfa\x8d\xc9\xddqE\xc0'
p824
tp825
Rp826
sg33
F0.9854545454545455
sg34
g37
sg38
F1089.2443370819092
ssI198
(dp827
g21
F0.9890909090909091
sg22
g23
(g27
S'$\xfa\x8d\xc9\xddqE\xc0'
p828
tp829
Rp830
sg33
F0.9854545454545455
sg34
g37
sg38
F1094.7171370983124
ssI199
(dp831
g21
F0.9818181818181818
sg22
g23
(g27
S'$\xfa\x8d\xc9\xddqE\xc0'
p832
tp833
Rp834
sg33
F0.9745454545454545
sg34
g37
sg38
F1100.1285099983215
ssI200
(dp835
g21
F0.9854545454545455
sg22
g23
(g27
S'$\xfa\x8d\xc9\xddqE\xc0'
p836
tp837
Rp838
sg33
F0.9636363636363636
sg34
g37
sg38
F1105.5993258953094
ssI201
(dp839
g21
F0.9818181818181818
sg22
g23
(g27
S'$\xfa\x8d\xc9\xddqE\xc0'
p840
tp841
Rp842
sg33
F0.9781818181818182
sg34
g37
sg38
F1111.078612089157
ssI202
(dp843
g21
F0.9927272727272727
sg22
g23
(g27
S'$\xfa\x8d\xc9\xddqE\xc0'
p844
tp845
Rp846
sg33
F0.9781818181818182
sg34
g37
sg38
F1116.4985580444336
ssI203
(dp847
g21
F0.9890909090909091
sg22
g23
(g27
S'$\xfa\x8d\xc9\xddqE\xc0'
p848
tp849
Rp850
sg33
F0.9890909090909091
sg34
g37
sg38
F1121.9803869724274
ssI204
(dp851
g21
F0.9890909090909091
sg22
g23
(g27
S'$\xfa\x8d\xc9\xddqE\xc0'
p852
tp853
Rp854
sg33
F0.9854545454545455
sg34
g37
sg38
F1127.4557619094849
ssI205
(dp855
g21
F0.9818181818181818
sg22
g23
(g27
S'$\xfa\x8d\xc9\xddqE\xc0'
p856
tp857
Rp858
sg33
F0.9781818181818182
sg34
g37
sg38
F1132.8762760162354
ssI206
(dp859
g21
F0.9745454545454545
sg22
g23
(g27
S'$\xfa\x8d\xc9\xddqE\xc0'
p860
tp861
Rp862
sg33
F0.9672727272727273
sg34
g37
sg38
F1138.3681709766388
ssI207
(dp863
g21
F0.9818181818181818
sg22
g23
(g27
S'$\xfa\x8d\xc9\xddqE\xc0'
p864
tp865
Rp866
sg33
F0.9745454545454545
sg34
g37
sg38
F1143.842255115509
ssI208
(dp867
g21
F0.9927272727272727
sg22
g23
(g27
S'$\xfa\x8d\xc9\xddqE\xc0'
p868
tp869
Rp870
sg33
F0.9927272727272727
sg34
g37
sg38
F1149.2632930278778
ssI209
(dp871
g21
F0.9854545454545455
sg22
g23
(g27
S'$\xfa\x8d\xc9\xddqE\xc0'
p872
tp873
Rp874
sg33
F0.9818181818181818
sg34
g37
sg38
F1154.749792098999
ssI210
(dp875
g21
F0.9927272727272727
sg22
g23
(g27
S'$\xfa\x8d\xc9\xddqE\xc0'
p876
tp877
Rp878
sg33
F0.9890909090909091
sg34
g37
sg38
F1160.2348120212555
ssI211
(dp879
g21
F0.9890909090909091
sg22
g23
(g27
S'$\xfa\x8d\xc9\xddqE\xc0'
p880
tp881
Rp882
sg33
F0.9781818181818182
sg34
g37
sg38
F1165.656702041626
ssI212
(dp883
g21
F0.9781818181818182
sg22
g23
(g27
S'$\xfa\x8d\xc9\xddqE\xc0'
p884
tp885
Rp886
sg33
F0.9636363636363636
sg34
g37
sg38
F1171.1463611125946
ssI213
(dp887
g21
F0.9890909090909091
sg22
g23
(g27
S'$\xfa\x8d\xc9\xddqE\xc0'
p888
tp889
Rp890
sg33
F0.9781818181818182
sg34
g37
sg38
F1176.6271929740906
ssI214
(dp891
g21
F0.9890909090909091
sg22
g23
(g27
S'$\xfa\x8d\xc9\xddqE\xc0'
p892
tp893
Rp894
sg33
F0.9890909090909091
sg34
g37
sg38
F1182.0597081184387
ssI215
(dp895
g21
F0.9890909090909091
sg22
g23
(g27
S'$\xfa\x8d\xc9\xddqE\xc0'
p896
tp897
Rp898
sg33
F0.9854545454545455
sg34
g37
sg38
F1187.531760931015
ssI216
(dp899
g21
F0.9890909090909091
sg22
g23
(g27
S'$\xfa\x8d\xc9\xddqE\xc0'
p900
tp901
Rp902
sg33
F0.9890909090909091
sg34
g37
sg38
F1192.966080904007
ssI217
(dp903
g21
F0.9890909090909091
sg22
g23
(g27
S'$\xfa\x8d\xc9\xddqE\xc0'
p904
tp905
Rp906
sg33
F0.9709090909090909
sg34
g37
sg38
F1198.4259479045868
ssI218
(dp907
g21
F0.9636363636363636
sg22
g23
(g27
S'$\xfa\x8d\xc9\xddqE\xc0'
p908
tp909
Rp910
sg33
F0.96
sg34
g37
sg38
F1203.892650127411
ssI219
(dp911
g21
F0.9818181818181818
sg22
g23
(g27
S'$\xfa\x8d\xc9\xddqE\xc0'
p912
tp913
Rp914
sg33
F0.9709090909090909
sg34
g37
sg38
F1209.3313119411469
ssI220
(dp915
g21
F0.9854545454545455
sg22
g23
(g27
S'$\xfa\x8d\xc9\xddqE\xc0'
p916
tp917
Rp918
sg33
F0.9854545454545455
sg34
g37
sg38
F1214.7807290554047
ssI221
(dp919
g21
F0.9927272727272727
sg22
g23
(g27
S'$\xfa\x8d\xc9\xddqE\xc0'
p920
tp921
Rp922
sg33
F0.9890909090909091
sg34
g37
sg38
F1220.2535610198975
ssI222
(dp923
g21
F0.9890909090909091
sg22
g23
(g27
S'$\xfa\x8d\xc9\xddqE\xc0'
p924
tp925
Rp926
sg33
F0.9890909090909091
sg34
g37
sg38
F1225.6960620880127
ssI223
(dp927
g21
F0.9963636363636363
sg22
g23
(g27
S'$\xfa\x8d\xc9\xddqE\xc0'
p928
tp929
Rp930
sg33
F0.9781818181818182
sg34
g37
sg38
F1231.1493310928345
ssI224
(dp931
g21
F0.9745454545454545
sg22
g23
(g27
S'$\xfa\x8d\xc9\xddqE\xc0'
p932
tp933
Rp934
sg33
F0.9672727272727273
sg34
g37
sg38
F1236.6262810230255
ssI225
(dp935
g21
F0.9818181818181818
sg22
g23
(g27
S'$\xfa\x8d\xc9\xddqE\xc0'
p936
tp937
Rp938
sg33
F0.9781818181818182
sg34
g37
sg38
F1242.0750279426575
ssI226
(dp939
g21
F0.9890909090909091
sg22
g23
(g27
S'$\xfa\x8d\xc9\xddqE\xc0'
p940
tp941
Rp942
sg33
F0.9890909090909091
sg34
g37
sg38
F1247.5237550735474
ssI227
(dp943
g21
F0.9890909090909091
sg22
g23
(g27
S'$\xfa\x8d\xc9\xddqE\xc0'
p944
tp945
Rp946
sg33
F0.9890909090909091
sg34
g37
sg38
F1253.0005691051483
ssI228
(dp947
g21
F0.9890909090909091
sg22
g23
(g27
S'$\xfa\x8d\xc9\xddqE\xc0'
p948
tp949
Rp950
sg33
F0.9890909090909091
sg34
g37
sg38
F1258.4694900512695
ssI229
(dp951
g21
F0.9927272727272727
sg22
g23
(g27
S'$\xfa\x8d\xc9\xddqE\xc0'
p952
tp953
Rp954
sg33
F0.9745454545454545
sg34
g37
sg38
F1263.9190220832825
ssI230
(dp955
g21
F0.9745454545454545
sg22
g23
(g27
S'$\xfa\x8d\xc9\xddqE\xc0'
p956
tp957
Rp958
sg33
F0.96
sg34
g37
sg38
F1269.397630929947
ssI231
(dp959
g21
F0.9709090909090909
sg22
g23
(g27
S'$\xfa\x8d\xc9\xddqE\xc0'
p960
tp961
Rp962
sg33
F0.96
sg34
g37
sg38
F1274.8554859161377
ssI232
(dp963
g21
F0.9927272727272727
sg22
g23
(g27
S'$\xfa\x8d\xc9\xddqE\xc0'
p964
tp965
Rp966
sg33
F0.9854545454545455
sg34
g37
sg38
F1280.3089649677277
ssI233
(dp967
g21
F0.9890909090909091
sg22
g23
(g27
S'$\xfa\x8d\xc9\xddqE\xc0'
p968
tp969
Rp970
sg33
F0.9890909090909091
sg34
g37
sg38
F1285.786770105362
ssI234
(dp971
g21
F0.9890909090909091
sg22
g23
(g27
S'$\xfa\x8d\xc9\xddqE\xc0'
p972
tp973
Rp974
sg33
F0.9890909090909091
sg34
g37
sg38
F1291.2236449718475
ssI235
(dp975
g21
F0.9927272727272727
sg22
g23
(g27
S'$\xfa\x8d\xc9\xddqE\xc0'
p976
tp977
Rp978
sg33
F0.9745454545454545
sg34
g37
sg38
F1296.662857055664
ssI236
(dp979
g21
F0.9709090909090909
sg22
g23
(g27
S'$\xfa\x8d\xc9\xddqE\xc0'
p980
tp981
Rp982
sg33
F0.9672727272727273
sg34
g37
sg38
F1302.1348369121552
ssI237
(dp983
g21
F0.9672727272727273
sg22
g23
(g27
S'$\xfa\x8d\xc9\xddqE\xc0'
p984
tp985
Rp986
sg33
F0.9636363636363636
sg34
g37
sg38
F1307.5758171081543
ssI238
(dp987
g21
F0.9927272727272727
sg22
g23
(g27
S'$\xfa\x8d\xc9\xddqE\xc0'
p988
tp989
Rp990
sg33
F0.9818181818181818
sg34
g37
sg38
F1313.0221600532532
ssI239
(dp991
g21
F0.9890909090909091
sg22
g23
(g27
S'$\xfa\x8d\xc9\xddqE\xc0'
p992
tp993
Rp994
sg33
F0.9890909090909091
sg34
g37
sg38
F1318.486881017685
ssI240
(dp995
g21
F0.9890909090909091
sg22
g23
(g27
S'$\xfa\x8d\xc9\xddqE\xc0'
p996
tp997
Rp998
sg33
F0.9890909090909091
sg34
g37
sg38
F1323.9351980686188
ssI241
(dp999
g21
F0.9927272727272727
sg22
g23
(g27
S'$\xfa\x8d\xc9\xddqE\xc0'
p1000
tp1001
Rp1002
sg33
F0.9890909090909091
sg34
g37
sg38
F1329.4029440879822
ssI242
(dp1003
g21
F0.9854545454545455
sg22
g23
(g27
S'$\xfa\x8d\xc9\xddqE\xc0'
p1004
tp1005
Rp1006
sg33
F0.9636363636363636
sg34
g37
sg38
F1334.8597359657288
ssI243
(dp1007
g21
F0.9745454545454545
sg22
g23
(g27
S'$\xfa\x8d\xc9\xddqE\xc0'
p1008
tp1009
Rp1010
sg33
F0.96
sg34
g37
sg38
F1340.3100979328156
ssI244
(dp1011
g21
F0.9781818181818182
sg22
g23
(g27
S'$\xfa\x8d\xc9\xddqE\xc0'
p1012
tp1013
Rp1014
sg33
F0.9745454545454545
sg34
g37
sg38
F1345.7937519550323
ssI245
(dp1015
g21
F0.9927272727272727
sg22
g23
(g27
S'$\xfa\x8d\xc9\xddqE\xc0'
p1016
tp1017
Rp1018
sg33
F0.9927272727272727
sg34
g37
sg38
F1351.2489540576935
ssI246
(dp1019
g21
F0.9890909090909091
sg22
g23
(g27
S'$\xfa\x8d\xc9\xddqE\xc0'
p1020
tp1021
Rp1022
sg33
F0.9890909090909091
sg34
g37
sg38
F1356.7064089775085
ssI247
(dp1023
g21
F0.9890909090909091
sg22
g23
(g27
S'$\xfa\x8d\xc9\xddqE\xc0'
p1024
tp1025
Rp1026
sg33
F0.9890909090909091
sg34
g37
sg38
F1362.1973221302032
ssI248
(dp1027
g21
F0.9854545454545455
sg22
g23
(g27
S'$\xfa\x8d\xc9\xddqE\xc0'
p1028
tp1029
Rp1030
sg33
F0.9781818181818182
sg34
g37
sg38
F1367.6523909568787
ssI249
(dp1031
g21
F0.9781818181818182
sg22
g23
(g27
S'$\xfa\x8d\xc9\xddqE\xc0'
p1032
tp1033
Rp1034
sg33
F0.9672727272727273
sg34
g37
sg38
F1373.1065759658813
ssI250
(dp1035
g21
F0.9854545454545455
sg22
g23
(g27
S'$\xfa\x8d\xc9\xddqE\xc0'
p1036
tp1037
Rp1038
sg33
F0.9745454545454545
sg34
g37
sg38
F1378.6017179489136
ssI251
(dp1039
g21
F0.9890909090909091
sg22
g23
(g27
S'$\xfa\x8d\xc9\xddqE\xc0'
p1040
tp1041
Rp1042
sg33
F0.9818181818181818
sg34
g37
sg38
F1384.0364899635315
ssI252
(dp1043
g21
F0.9890909090909091
sg22
g23
(g27
S'$\xfa\x8d\xc9\xddqE\xc0'
p1044
tp1045
Rp1046
sg33
F0.9890909090909091
sg34
g37
sg38
F1389.4791300296783
ssI253
(dp1047
g21
F0.9890909090909091
sg22
g23
(g27
S'$\xfa\x8d\xc9\xddqE\xc0'
p1048
tp1049
Rp1050
sg33
F0.9818181818181818
sg34
g37
sg38
F1394.9477529525757
ssI254
(dp1051
g21
F0.9854545454545455
sg22
g23
(g27
S'$\xfa\x8d\xc9\xddqE\xc0'
p1052
tp1053
Rp1054
sg33
F0.9709090909090909
sg34
g37
sg38
F1400.3827929496765
ssI255
(dp1055
g21
F0.9818181818181818
sg22
g23
(g27
S'$\xfa\x8d\xc9\xddqE\xc0'
p1056
tp1057
Rp1058
sg33
F0.9818181818181818
sg34
g37
sg38
F1405.8268671035767
ssI256
(dp1059
g21
F0.9781818181818182
sg22
g23
(g27
S'$\xfa\x8d\xc9\xddqE\xc0'
p1060
tp1061
Rp1062
sg33
F0.9672727272727273
sg34
g37
sg38
F1411.3027420043945
ssI257
(dp1063
g21
F0.9818181818181818
sg22
g23
(g27
S'$\xfa\x8d\xc9\xddqE\xc0'
p1064
tp1065
Rp1066
sg33
F0.9781818181818182
sg34
g37
sg38
F1416.7725019454956
ssI258
(dp1067
g21
F0.9927272727272727
sg22
g23
(g27
S'$\xfa\x8d\xc9\xddqE\xc0'
p1068
tp1069
Rp1070
sg33
F0.9818181818181818
sg34
g37
sg38
F1422.2304179668427
ssI259
(dp1071
g21
F0.9890909090909091
sg22
g23
(g27
S'$\xfa\x8d\xc9\xddqE\xc0'
p1072
tp1073
Rp1074
sg33
F0.9890909090909091
sg34
g37
sg38
F1427.7015640735626
ssI260
(dp1075
g21
F0.9927272727272727
sg22
g23
(g27
S'$\xfa\x8d\xc9\xddqE\xc0'
p1076
tp1077
Rp1078
sg33
F0.9854545454545455
sg34
g37
sg38
F1433.1440300941467
ssI261
(dp1079
g21
F0.9854545454545455
sg22
g23
(g27
S'$\xfa\x8d\xc9\xddqE\xc0'
p1080
tp1081
Rp1082
sg33
F0.9781818181818182
sg34
g37
sg38
F1438.6123099327087
ssI262
(dp1083
g21
F0.9890909090909091
sg22
g23
(g27
S'$\xfa\x8d\xc9\xddqE\xc0'
p1084
tp1085
Rp1086
sg33
F0.9745454545454545
sg34
g37
sg38
F1444.0964469909668
ssI263
(dp1087
g21
F0.9818181818181818
sg22
g23
(g27
S'$\xfa\x8d\xc9\xddqE\xc0'
p1088
tp1089
Rp1090
sg33
F0.9818181818181818
sg34
g37
sg38
F1449.5577120780945
ssI264
(dp1091
g21
F0.9781818181818182
sg22
g23
(g27
S'$\xfa\x8d\xc9\xddqE\xc0'
p1092
tp1093
Rp1094
sg33
F0.9781818181818182
sg34
g37
sg38
F1454.9768550395966
ssI265
(dp1095
g21
F0.9927272727272727
sg22
g23
(g27
S'$\xfa\x8d\xc9\xddqE\xc0'
p1096
tp1097
Rp1098
sg33
F0.9854545454545455
sg34
g37
sg38
F1460.4599409103394
ssI266
(dp1099
g21
F0.9854545454545455
sg22
g23
(g27
S'$\xfa\x8d\xc9\xddqE\xc0'
p1100
tp1101
Rp1102
sg33
F0.9854545454545455
sg34
g37
sg38
F1465.9364550113678
ssI267
(dp1103
g21
F0.9854545454545455
sg22
g23
(g27
S'$\xfa\x8d\xc9\xddqE\xc0'
p1104
tp1105
Rp1106
sg33
F0.9781818181818182
sg34
g37
sg38
F1471.3436501026154
ssI268
(dp1107
g21
F0.9781818181818182
sg22
g23
(g27
S'$\xfa\x8d\xc9\xddqE\xc0'
p1108
tp1109
Rp1110
sg33
F0.9745454545454545
sg34
g37
sg38
F1476.8082880973816
ssI269
(dp1111
g21
F0.9890909090909091
sg22
g23
(g27
S'$\xfa\x8d\xc9\xddqE\xc0'
p1112
tp1113
Rp1114
sg33
F0.9672727272727273
sg34
g37
sg38
F1482.28595495224
ssI270
(dp1115
g21
F0.9781818181818182
sg22
g23
(g27
S'$\xfa\x8d\xc9\xddqE\xc0'
p1116
tp1117
Rp1118
sg33
F0.9745454545454545
sg34
g37
sg38
F1487.704941034317
ssI271
(dp1119
g21
F0.9818181818181818
sg22
g23
(g27
S'$\xfa\x8d\xc9\xddqE\xc0'
p1120
tp1121
Rp1122
sg33
F0.9745454545454545
sg34
g37
sg38
F1493.190663099289
ssI272
(dp1123
g21
F0.9927272727272727
sg22
g23
(g27
S'$\xfa\x8d\xc9\xddqE\xc0'
p1124
tp1125
Rp1126
sg33
F0.9890909090909091
sg34
g37
sg38
F1498.685101032257
ssI273
(dp1127
g21
F0.9927272727272727
sg22
g23
(g27
S'$\xfa\x8d\xc9\xddqE\xc0'
p1128
tp1129
Rp1130
sg33
F0.9927272727272727
sg34
g37
sg38
F1504.0989170074463
ssI274
(dp1131
g21
F0.9781818181818182
sg22
g23
(g27
S'$\xfa\x8d\xc9\xddqE\xc0'
p1132
tp1133
Rp1134
sg33
F0.9781818181818182
sg34
g37
sg38
F1509.5603981018066
ssI275
(dp1135
g21
F0.9781818181818182
sg22
g23
(g27
S'$\xfa\x8d\xc9\xddqE\xc0'
p1136
tp1137
Rp1138
sg33
F0.9781818181818182
sg34
g37
sg38
F1515.0448489189148
ssI276
(dp1139
g21
F0.9963636363636363
sg22
g23
(g27
S'$\xfa\x8d\xc9\xddqE\xc0'
p1140
tp1141
Rp1142
sg33
F0.9781818181818182
sg34
g37
sg38
F1520.4578030109406
ssI277
(dp1143
g21
F0.9818181818181818
sg22
g23
(g27
S'$\xfa\x8d\xc9\xddqE\xc0'
p1144
tp1145
Rp1146
sg33
F0.9709090909090909
sg34
g37
sg38
F1525.9241399765015
ssI278
(dp1147
g21
F0.9745454545454545
sg22
g23
(g27
S'$\xfa\x8d\xc9\xddqE\xc0'
p1148
tp1149
Rp1150
sg33
F0.9672727272727273
sg34
g37
sg38
F1531.3861889839172
ssI279
(dp1151
g21
F0.9927272727272727
sg22
g23
(g27
S'$\xfa\x8d\xc9\xddqE\xc0'
p1152
tp1153
Rp1154
sg33
F0.9854545454545455
sg34
g37
sg38
F1536.8110139369965
ssI280
(dp1155
g21
F0.9854545454545455
sg22
g23
(g27
S'$\xfa\x8d\xc9\xddqE\xc0'
p1156
tp1157
Rp1158
sg33
F0.9818181818181818
sg34
g37
sg38
F1542.2866370677948
ssI281
(dp1159
g21
F0.9854545454545455
sg22
g23
(g27
S'$\xfa\x8d\xc9\xddqE\xc0'
p1160
tp1161
Rp1162
sg33
F0.9781818181818182
sg34
g37
sg38
F1547.7440950870514
ssI282
(dp1163
g21
F0.9854545454545455
sg22
g23
(g27
S'$\xfa\x8d\xc9\xddqE\xc0'
p1164
tp1165
Rp1166
sg33
F0.9781818181818182
sg34
g37
sg38
F1553.185758113861
ssI283
(dp1167
g21
F0.9963636363636363
sg22
g23
(g27
S'$\xfa\x8d\xc9\xddqE\xc0'
p1168
tp1169
Rp1170
sg33
F0.9781818181818182
sg34
g37
sg38
F1558.677141904831
ssI284
(dp1171
g21
F0.9781818181818182
sg22
g23
(g27
S'$\xfa\x8d\xc9\xddqE\xc0'
p1172
tp1173
Rp1174
sg33
F0.9745454545454545
sg34
g37
sg38
F1564.11683011055
ssI285
(dp1175
g21
F0.9818181818181818
sg22
g23
(g27
S'$\xfa\x8d\xc9\xddqE\xc0'
p1176
tp1177
Rp1178
sg33
F0.9781818181818182
sg34
g37
sg38
F1569.5622730255127
ssI286
(dp1179
g21
F0.9927272727272727
sg22
g23
(g27
S'$\xfa\x8d\xc9\xddqE\xc0'
p1180
tp1181
Rp1182
sg33
F0.9781818181818182
sg34
g37
sg38
F1575.0357949733734
ssI287
(dp1183
g21
F0.9854545454545455
sg22
g23
(g27
S'$\xfa\x8d\xc9\xddqE\xc0'
p1184
tp1185
Rp1186
sg33
F0.9781818181818182
sg34
g37
sg38
F1580.4718980789185
ssI288
(dp1187
g21
F0.9781818181818182
sg22
g23
(g27
S'$\xfa\x8d\xc9\xddqE\xc0'
p1188
tp1189
Rp1190
sg33
F0.9781818181818182
sg34
g37
sg38
F1585.9131100177765
ssI289
(dp1191
g21
F0.9818181818181818
sg22
g23
(g27
S'$\xfa\x8d\xc9\xddqE\xc0'
p1192
tp1193
Rp1194
sg33
F0.9781818181818182
sg34
g37
sg38
F1591.3992080688477
ssI290
(dp1195
g21
F0.9927272727272727
sg22
g23
(g27
S'$\xfa\x8d\xc9\xddqE\xc0'
p1196
tp1197
Rp1198
sg33
F0.9818181818181818
sg34
g37
sg38
F1596.837795972824
ssI291
(dp1199
g21
F0.9818181818181818
sg22
g23
(g27
S'$\xfa\x8d\xc9\xddqE\xc0'
p1200
tp1201
Rp1202
sg33
F0.9745454545454545
sg34
g37
sg38
F1602.2778301239014
ssI292
(dp1203
g21
F0.9818181818181818
sg22
g23
(g27
S'$\xfa\x8d\xc9\xddqE\xc0'
p1204
tp1205
Rp1206
sg33
F0.9781818181818182
sg34
g37
sg38
F1607.7187159061432
ssI293
(dp1207
g21
F0.9927272727272727
sg22
g23
(g27
S'$\xfa\x8d\xc9\xddqE\xc0'
p1208
tp1209
Rp1210
sg33
F0.9781818181818182
sg34
g37
sg38
F1613.1670770645142
ssI294
(dp1211
g21
F0.9854545454545455
sg22
g23
(g27
S'$\xfa\x8d\xc9\xddqE\xc0'
p1212
tp1213
Rp1214
sg33
F0.9781818181818182
sg34
g37
sg38
F1618.6572089195251
ssI295
(dp1215
g21
F0.9781818181818182
sg22
g23
(g27
S'$\xfa\x8d\xc9\xddqE\xc0'
p1216
tp1217
Rp1218
sg33
F0.9745454545454545
sg34
g37
sg38
F1624.1028571128845
ssI296
(dp1219
g21
F0.9890909090909091
sg22
g23
(g27
S'$\xfa\x8d\xc9\xddqE\xc0'
p1220
tp1221
Rp1222
sg33
F0.9781818181818182
sg34
g37
sg38
F1629.5739130973816
ssI297
(dp1223
g21
F0.9890909090909091
sg22
g23
(g27
S'$\xfa\x8d\xc9\xddqE\xc0'
p1224
tp1225
Rp1226
sg33
F0.9818181818181818
sg34
g37
sg38
F1635.0656960010529
ssI298
(dp1227
g21
F0.9818181818181818
sg22
g23
(g27
S'$\xfa\x8d\xc9\xddqE\xc0'
p1228
tp1229
Rp1230
sg33
F0.9745454545454545
sg34
g37
sg38
F1640.534954071045
ssI299
(dp1231
g21
F0.9745454545454545
sg22
g23
(g27
S'$\xfa\x8d\xc9\xddqE\xc0'
p1232
tp1233
Rp1234
sg33
F0.9745454545454545
sg34
g37
sg38
F1645.9586338996887
ssI300
(dp1235
g21
F0.9818181818181818
sg22
g23
(g27
S'$\xfa\x8d\xc9\xddqE\xc0'
p1236
tp1237
Rp1238
sg33
F0.9745454545454545
sg34
g37
sg38
F1651.4257559776306
ssI301
(dp1239
g21
F0.9854545454545455
sg22
g23
(g27
S'$\xfa\x8d\xc9\xddqE\xc0'
p1240
tp1241
Rp1242
sg33
F0.9745454545454545
sg34
g37
sg38
F1656.8920040130615
ssI302
(dp1243
g21
F0.9818181818181818
sg22
g23
(g27
S'$\xfa\x8d\xc9\xddqE\xc0'
p1244
tp1245
Rp1246
sg33
F0.9781818181818182
sg34
g37
sg38
F1662.3002779483795
ssI303
(dp1247
g21
F0.9854545454545455
sg22
g23
(g27
S'$\xfa\x8d\xc9\xddqE\xc0'
p1248
tp1249
Rp1250
sg33
F0.9781818181818182
sg34
g37
sg38
F1667.7618730068207
ssI304
(dp1251
g21
F0.9890909090909091
sg22
g23
(g27
S'$\xfa\x8d\xc9\xddqE\xc0'
p1252
tp1253
Rp1254
sg33
F0.9854545454545455
sg34
g37
sg38
F1673.2004070281982
ssI305
(dp1255
g21
F0.9963636363636363
sg22
g23
(g27
S'$\xfa\x8d\xc9\xddqE\xc0'
p1256
tp1257
Rp1258
sg33
F0.9781818181818182
sg34
g37
sg38
F1678.6587269306183
ssI306
(dp1259
g21
F0.9818181818181818
sg22
g23
(g27
S'$\xfa\x8d\xc9\xddqE\xc0'
p1260
tp1261
Rp1262
sg33
F0.9745454545454545
sg34
g37
sg38
F1684.1310019493103
ssI307
(dp1263
g21
F0.9818181818181818
sg22
g23
(g27
S'$\xfa\x8d\xc9\xddqE\xc0'
p1264
tp1265
Rp1266
sg33
F0.9709090909090909
sg34
g37
sg38
F1689.567330121994
ssI308
(dp1267
g21
F0.9818181818181818
sg22
g23
(g27
S'$\xfa\x8d\xc9\xddqE\xc0'
p1268
tp1269
Rp1270
sg33
F0.9709090909090909
sg34
g37
sg38
F1695.0224499702454
ssI309
(dp1271
g21
F0.9781818181818182
sg22
g23
(g27
S'$\xfa\x8d\xc9\xddqE\xc0'
p1272
tp1273
Rp1274
sg33
F0.9745454545454545
sg34
g37
sg38
F1700.4941940307617
ssI310
(dp1275
g21
F0.9818181818181818
sg22
g23
(g27
S'$\xfa\x8d\xc9\xddqE\xc0'
p1276
tp1277
Rp1278
sg33
F0.9745454545454545
sg34
g37
sg38
F1705.9412579536438
ssI311
(dp1279
g21
F0.9927272727272727
sg22
g23
(g27
S'$\xfa\x8d\xc9\xddqE\xc0'
p1280
tp1281
Rp1282
sg33
F0.9854545454545455
sg34
g37
sg38
F1711.3842630386353
ssI312
(dp1283
g21
F0.9927272727272727
sg22
g23
(g27
S'$\xfa\x8d\xc9\xddqE\xc0'
p1284
tp1285
Rp1286
sg33
F0.9927272727272727
sg34
g37
sg38
F1716.8572070598602
ssI313
(dp1287
g21
F0.9781818181818182
sg22
g23
(g27
S'$\xfa\x8d\xc9\xddqE\xc0'
p1288
tp1289
Rp1290
sg33
F0.9781818181818182
sg34
g37
sg38
F1722.3029611110687
ssI314
(dp1291
g21
F0.9781818181818182
sg22
g23
(g27
S'$\xfa\x8d\xc9\xddqE\xc0'
p1292
tp1293
Rp1294
sg33
F0.9781818181818182
sg34
g37
sg38
F1727.7537219524384
ssI315
(dp1295
g21
F0.9854545454545455
sg22
g23
(g27
S'$\xfa\x8d\xc9\xddqE\xc0'
p1296
tp1297
Rp1298
sg33
F0.9745454545454545
sg34
g37
sg38
F1733.2165050506592
ssI316
(dp1299
g21
F0.9854545454545455
sg22
g23
(g27
S'$\xfa\x8d\xc9\xddqE\xc0'
p1300
tp1301
Rp1302
sg33
F0.9781818181818182
sg34
g37
sg38
F1738.6724429130554
ssI317
(dp1303
g21
F0.9854545454545455
sg22
g23
(g27
S'$\xfa\x8d\xc9\xddqE\xc0'
p1304
tp1305
Rp1306
sg33
F0.9854545454545455
sg34
g37
sg38
F1744.1222400665283
ssI318
(dp1307
g21
F0.9927272727272727
sg22
g23
(g27
S'$\xfa\x8d\xc9\xddqE\xc0'
p1308
tp1309
Rp1310
sg33
F0.9890909090909091
sg34
g37
sg38
F1749.587238073349
ssI319
(dp1311
g21
F0.9890909090909091
sg22
g23
(g27
S'$\xfa\x8d\xc9\xddqE\xc0'
p1312
tp1313
Rp1314
sg33
F0.9890909090909091
sg34
g37
sg38
F1755.0298430919647
ssI320
(dp1315
g21
F0.9927272727272727
sg22
g23
(g27
S'$\xfa\x8d\xc9\xddqE\xc0'
p1316
tp1317
Rp1318
sg33
F0.9781818181818182
sg34
g37
sg38
F1760.4732809066772
ssI321
(dp1319
g21
F0.9781818181818182
sg22
g23
(g27
S'$\xfa\x8d\xc9\xddqE\xc0'
p1320
tp1321
Rp1322
sg33
F0.9745454545454545
sg34
g37
sg38
F1765.9287269115448
ssI322
(dp1323
g21
F0.9781818181818182
sg22
g23
(g27
S'$\xfa\x8d\xc9\xddqE\xc0'
p1324
tp1325
Rp1326
sg33
F0.9709090909090909
sg34
g37
sg38
F1771.3772130012512
ssI323
(dp1327
g21
F0.9781818181818182
sg22
g23
(g27
S'$\xfa\x8d\xc9\xddqE\xc0'
p1328
tp1329
Rp1330
sg33
F0.9672727272727273
sg34
g37
sg38
F1776.8450179100037
ssI324
(dp1331
g21
F0.9818181818181818
sg22
g23
(g27
S'$\xfa\x8d\xc9\xddqE\xc0'
p1332
tp1333
Rp1334
sg33
F0.9745454545454545
sg34
g37
sg38
F1782.3275430202484
ssI325
(dp1335
g21
F0.9963636363636363
sg22
g23
(g27
S'$\xfa\x8d\xc9\xddqE\xc0'
p1336
tp1337
Rp1338
sg33
F0.9963636363636363
sg34
g37
sg38
F1787.7358090877533
ssI326
(dp1339
g21
F0.9890909090909091
sg22
g23
(g27
S'$\xfa\x8d\xc9\xddqE\xc0'
p1340
tp1341
Rp1342
sg33
F0.9890909090909091
sg34
g37
sg38
F1793.2002820968628
ssI327
(dp1343
g21
F0.9890909090909091
sg22
g23
(g27
S'$\xfa\x8d\xc9\xddqE\xc0'
p1344
tp1345
Rp1346
sg33
F0.9890909090909091
sg34
g37
sg38
F1798.682291984558
ssI328
(dp1347
g21
F0.9818181818181818
sg22
g23
(g27
S'$\xfa\x8d\xc9\xddqE\xc0'
p1348
tp1349
Rp1350
sg33
F0.9781818181818182
sg34
g37
sg38
F1804.0972759723663
ssI329
(dp1351
g21
F0.9818181818181818
sg22
g23
(g27
S'$\xfa\x8d\xc9\xddqE\xc0'
p1352
tp1353
Rp1354
sg33
F0.9709090909090909
sg34
g37
sg38
F1809.565817117691
ssI330
(dp1355
g21
F0.9672727272727273
sg22
g23
(g27
S'$\xfa\x8d\xc9\xddqE\xc0'
p1356
tp1357
Rp1358
sg33
F0.9636363636363636
sg34
g37
sg38
F1815.0338249206543
ssI331
(dp1359
g21
F0.9818181818181818
sg22
g23
(g27
S'$\xfa\x8d\xc9\xddqE\xc0'
p1360
tp1361
Rp1362
sg33
F0.9781818181818182
sg34
g37
sg38
F1820.452299118042
ssI332
(dp1363
g21
F0.9927272727272727
sg22
g23
(g27
S'$\xfa\x8d\xc9\xddqE\xc0'
p1364
tp1365
Rp1366
sg33
F0.9854545454545455
sg34
g37
sg38
F1825.916505098343
ssI333
(dp1367
g21
F0.9890909090909091
sg22
g23
(g27
S'$\xfa\x8d\xc9\xddqE\xc0'
p1368
tp1369
Rp1370
sg33
F0.9890909090909091
sg34
g37
sg38
F1831.3585109710693
ssI334
(dp1371
g21
F0.9890909090909091
sg22
g23
(g27
S'$\xfa\x8d\xc9\xddqE\xc0'
p1372
tp1373
Rp1374
sg33
F0.9890909090909091
sg34
g37
sg38
F1836.7988739013672
ssI335
(dp1375
g21
F0.9927272727272727
sg22
g23
(g27
S'$\xfa\x8d\xc9\xddqE\xc0'
p1376
tp1377
Rp1378
sg33
F0.9890909090909091
sg34
g37
sg38
F1842.2779779434204
ssI336
(dp1379
g21
F0.9745454545454545
sg22
g23
(g27
S'$\xfa\x8d\xc9\xddqE\xc0'
p1380
tp1381
Rp1382
sg33
F0.9709090909090909
sg34
g37
sg38
F1847.7136130332947
ssI337
(dp1383
g21
F0.9672727272727273
sg22
g23
(g27
S'$\xfa\x8d\xc9\xddqE\xc0'
p1384
tp1385
Rp1386
sg33
F0.96
sg34
g37
sg38
F1853.1542229652405
ssI338
(dp1387
g21
F0.9854545454545455
sg22
g23
(g27
S'$\xfa\x8d\xc9\xddqE\xc0'
p1388
tp1389
Rp1390
sg33
F0.9636363636363636
sg34
g37
sg38
F1858.6492669582367
ssI339
(dp1391
g21
F0.9854545454545455
sg22
g23
(g27
S'$\xfa\x8d\xc9\xddqE\xc0'
p1392
tp1393
Rp1394
sg33
F0.9854545454545455
sg34
g37
sg38
F1864.0857639312744
ssI340
(dp1395
g21
F0.9890909090909091
sg22
g23
(g27
S'$\xfa\x8d\xc9\xddqE\xc0'
p1396
tp1397
Rp1398
sg33
F0.9890909090909091
sg34
g37
sg38
F1869.5400791168213
ssI341
(dp1399
g21
F0.9890909090909091
sg22
g23
(g27
S'$\xfa\x8d\xc9\xddqE\xc0'
p1400
tp1401
Rp1402
sg33
F0.9890909090909091
sg34
g37
sg38
F1875.0248548984528
ssI342
(dp1403
g21
F0.9890909090909091
sg22
g23
(g27
S'$\xfa\x8d\xc9\xddqE\xc0'
p1404
tp1405
Rp1406
sg33
F0.9854545454545455
sg34
g37
sg38
F1880.4855399131775
ssI343
(dp1407
g21
F0.9927272727272727
sg22
g23
(g27
S'$\xfa\x8d\xc9\xddqE\xc0'
p1408
tp1409
Rp1410
sg33
F0.9854545454545455
sg34
g37
sg38
F1885.9473509788513
ssI344
(dp1411
g21
F0.9854545454545455
sg22
g23
(g27
S'$\xfa\x8d\xc9\xddqE\xc0'
p1412
tp1413
Rp1414
sg33
F0.9745454545454545
sg34
g37
sg38
F1891.4321610927582
ssI345
(dp1415
g21
F0.9709090909090909
sg22
g23
(g27
S'$\xfa\x8d\xc9\xddqE\xc0'
p1416
tp1417
Rp1418
sg33
F0.9672727272727273
sg34
g37
sg38
F1896.902009010315
ssI346
(dp1419
g21
F0.9745454545454545
sg22
g23
(g27
S'$\xfa\x8d\xc9\xddqE\xc0'
p1420
tp1421
Rp1422
sg33
F0.9709090909090909
sg34
g37
sg38
F1902.3522489070892
ssI347
(dp1423
g21
F0.9927272727272727
sg22
g23
(g27
S'$\xfa\x8d\xc9\xddqE\xc0'
p1424
tp1425
Rp1426
sg33
F0.9890909090909091
sg34
g37
sg38
F1907.823364019394
ssI348
(dp1427
g21
F0.9890909090909091
sg22
g23
(g27
S'$\xfa\x8d\xc9\xddqE\xc0'
p1428
tp1429
Rp1430
sg33
F0.9890909090909091
sg34
g37
sg38
F1913.2702450752258
ssI349
(dp1431
g21
F0.9890909090909091
sg22
g23
(g27
S'$\xfa\x8d\xc9\xddqE\xc0'
p1432
tp1433
Rp1434
sg33
F0.9890909090909091
sg34
g37
sg38
F1918.7272260189056
ssI350
(dp1435
g21
F0.9890909090909091
sg22
g23
(g27
S'$\xfa\x8d\xc9\xddqE\xc0'
p1436
tp1437
Rp1438
sg33
F0.9818181818181818
sg34
g37
sg38
F1924.23193693161
ssI351
(dp1439
g21
F0.9890909090909091
sg22
g23
(g27
S'$\xfa\x8d\xc9\xddqE\xc0'
p1440
tp1441
Rp1442
sg33
F0.9818181818181818
sg34
g37
sg38
F1929.685779094696
ssI352
(dp1443
g21
F0.9745454545454545
sg22
g23
(g27
S'$\xfa\x8d\xc9\xddqE\xc0'
p1444
tp1445
Rp1446
sg33
F0.9636363636363636
sg34
g37
sg38
F1935.1553010940552
ssI353
(dp1447
g21
F0.9672727272727273
sg22
g23
(g27
S'$\xfa\x8d\xc9\xddqE\xc0'
p1448
tp1449
Rp1450
sg33
F0.9672727272727273
sg34
g37
sg38
F1940.6395120620728
ssI354
(dp1451
g21
F0.9818181818181818
sg22
g23
(g27
S'$\xfa\x8d\xc9\xddqE\xc0'
p1452
tp1453
Rp1454
sg33
F0.9672727272727273
sg34
g37
sg38
F1946.0789721012115
ssI355
(dp1455
g21
F0.9890909090909091
sg22
g23
(g27
S'$\xfa\x8d\xc9\xddqE\xc0'
p1456
tp1457
Rp1458
sg33
F0.9890909090909091
sg34
g37
sg38
F1951.5238819122314
ssI356
(dp1459
g21
F0.9890909090909091
sg22
g23
(g27
S'$\xfa\x8d\xc9\xddqE\xc0'
p1460
tp1461
Rp1462
sg33
F0.9854545454545455
sg34
g37
sg38
F1957.006341934204
ssI357
(dp1463
g21
F0.9890909090909091
sg22
g23
(g27
S'$\xfa\x8d\xc9\xddqE\xc0'
p1464
tp1465
Rp1466
sg33
F0.9890909090909091
sg34
g37
sg38
F1962.4515829086304
ssI358
(dp1467
g21
F0.9890909090909091
sg22
g23
(g27
S'$\xfa\x8d\xc9\xddqE\xc0'
p1468
tp1469
Rp1470
sg33
F0.9890909090909091
sg34
g37
sg38
F1967.905277967453
ssI359
(dp1471
g21
F0.9963636363636363
sg22
g23
(g27
S'$\xfa\x8d\xc9\xddqE\xc0'
p1472
tp1473
Rp1474
sg33
F0.9818181818181818
sg34
g37
sg38
F1973.4022591114044
ssI360
(dp1475
g21
F0.9745454545454545
sg22
g23
(g27
S'$\xfa\x8d\xc9\xddqE\xc0'
p1476
tp1477
Rp1478
sg33
F0.9636363636363636
sg34
g37
sg38
F1978.8615999221802
ssI361
(dp1479
g21
F0.9745454545454545
sg22
g23
(g27
S'$\xfa\x8d\xc9\xddqE\xc0'
p1480
tp1481
Rp1482
sg33
F0.9636363636363636
sg34
g37
sg38
F1984.3288230895996
ssI362
(dp1483
g21
F0.9818181818181818
sg22
g23
(g27
S'$\xfa\x8d\xc9\xddqE\xc0'
p1484
tp1485
Rp1486
sg33
F0.9745454545454545
sg34
g37
sg38
F1989.78386592865
ssI363
(dp1487
g21
F0.9890909090909091
sg22
g23
(g27
S'$\xfa\x8d\xc9\xddqE\xc0'
p1488
tp1489
Rp1490
sg33
F0.9818181818181818
sg34
g37
sg38
F1995.2536001205444
ssI364
(dp1491
g21
F0.9890909090909091
sg22
g23
(g27
S'$\xfa\x8d\xc9\xddqE\xc0'
p1492
tp1493
Rp1494
sg33
F0.9854545454545455
sg34
g37
sg38
F2000.7499270439148
ssI365
(dp1495
g21
F0.9854545454545455
sg22
g23
(g27
S'$\xfa\x8d\xc9\xddqE\xc0'
p1496
tp1497
Rp1498
sg33
F0.9818181818181818
sg34
g37
sg38
F2006.1987090110779
ssI366
(dp1499
g21
F0.9890909090909091
sg22
g23
(g27
S'$\xfa\x8d\xc9\xddqE\xc0'
p1500
tp1501
Rp1502
sg33
F0.9818181818181818
sg34
g37
sg38
F2011.6564121246338
ssI367
(dp1503
g21
F1.0
sg22
g23
(g27
S'$\xfa\x8d\xc9\xddqE\xc0'
p1504
tp1505
Rp1506
sg33
F0.9818181818181818
sg34
g37
sg38
F2017.1392290592194
ssI368
(dp1507
g21
F0.9672727272727273
sg22
g23
(g27
S'$\xfa\x8d\xc9\xddqE\xc0'
p1508
tp1509
Rp1510
sg33
F0.9636363636363636
sg34
g37
sg38
F2022.5980639457703
ssI369
(dp1511
g21
F0.9672727272727273
sg22
g23
(g27
S'$\xfa\x8d\xc9\xddqE\xc0'
p1512
tp1513
Rp1514
sg33
F0.9636363636363636
sg34
g37
sg38
F2028.0506150722504
ssI370
(dp1515
g21
F0.9854545454545455
sg22
g23
(g27
S'$\xfa\x8d\xc9\xddqE\xc0'
p1516
tp1517
Rp1518
sg33
F0.9636363636363636
sg34
g37
sg38
F2033.5362350940704
ssI371
(dp1519
g21
F0.9927272727272727
sg22
g23
(g27
S'$\xfa\x8d\xc9\xddqE\xc0'
p1520
tp1521
Rp1522
sg33
F0.9890909090909091
sg34
g37
sg38
F2039.0198059082031
ssI372
(dp1523
g21
F0.9890909090909091
sg22
g23
(g27
S'$\xfa\x8d\xc9\xddqE\xc0'
p1524
tp1525
Rp1526
sg33
F0.9890909090909091
sg34
g37
sg38
F2044.5082120895386
ssI373
(dp1527
g21
F0.9890909090909091
sg22
g23
(g27
S'$\xfa\x8d\xc9\xddqE\xc0'
p1528
tp1529
Rp1530
sg33
F0.9890909090909091
sg34
g37
sg38
F2049.9843230247498
ssI374
(dp1531
g21
F0.9927272727272727
sg22
g23
(g27
S'$\xfa\x8d\xc9\xddqE\xc0'
p1532
tp1533
Rp1534
sg33
F0.9890909090909091
sg34
g37
sg38
F2055.4451389312744
ssI375
(dp1535
g21
F0.9854545454545455
sg22
g23
(g27
S'$\xfa\x8d\xc9\xddqE\xc0'
p1536
tp1537
Rp1538
sg33
F0.9781818181818182
sg34
g37
sg38
F2060.9055700302124
ssI376
(dp1539
g21
F0.9745454545454545
sg22
g23
(g27
S'$\xfa\x8d\xc9\xddqE\xc0'
p1540
tp1541
Rp1542
sg33
F0.9672727272727273
sg34
g37
sg38
F2066.399919986725
ssI377
(dp1543
g21
F0.9745454545454545
sg22
g23
(g27
S'$\xfa\x8d\xc9\xddqE\xc0'
p1544
tp1545
Rp1546
sg33
F0.9672727272727273
sg34
g37
sg38
F2071.877795934677
ssI378
(dp1547
g21
F0.9854545454545455
sg22
g23
(g27
S'$\xfa\x8d\xc9\xddqE\xc0'
p1548
tp1549
Rp1550
sg33
F0.9709090909090909
sg34
g37
sg38
F2077.363847017288
ssI379
(dp1551
g21
F0.9890909090909091
sg22
g23
(g27
S'$\xfa\x8d\xc9\xddqE\xc0'
p1552
tp1553
Rp1554
sg33
F0.9781818181818182
sg34
g37
sg38
F2082.841737985611
ssI380
(dp1555
g21
F0.9854545454545455
sg22
g23
(g27
S'$\xfa\x8d\xc9\xddqE\xc0'
p1556
tp1557
Rp1558
sg33
F0.9854545454545455
sg34
g37
sg38
F2088.3106229305267
ssI381
(dp1559
g21
F0.9890909090909091
sg22
g23
(g27
S'$\xfa\x8d\xc9\xddqE\xc0'
p1560
tp1561
Rp1562
sg33
F0.9890909090909091
sg34
g37
sg38
F2093.7897799015045
ssI382
(dp1563
g21
F0.9890909090909091
sg22
g23
(g27
S'$\xfa\x8d\xc9\xddqE\xc0'
p1564
tp1565
Rp1566
sg33
F0.9854545454545455
sg34
g37
sg38
F2099.28222990036
ssI383
(dp1567
g21
F0.9854545454545455
sg22
g23
(g27
S'$\xfa\x8d\xc9\xddqE\xc0'
p1568
tp1569
Rp1570
sg33
F0.9781818181818182
sg34
g37
sg38
F2104.754233121872
ssI384
(dp1571
g21
F0.9818181818181818
sg22
g23
(g27
S'$\xfa\x8d\xc9\xddqE\xc0'
p1572
tp1573
Rp1574
sg33
F0.9709090909090909
sg34
g37
sg38
F2110.2393450737
ssI385
(dp1575
g21
F0.9781818181818182
sg22
g23
(g27
S'$\xfa\x8d\xc9\xddqE\xc0'
p1576
tp1577
Rp1578
sg33
F0.9709090909090909
sg34
g37
sg38
F2115.7141630649567
ssI386
(dp1579
g21
F0.9818181818181818
sg22
g23
(g27
S'$\xfa\x8d\xc9\xddqE\xc0'
p1580
tp1581
Rp1582
sg33
F0.9818181818181818
sg34
g37
sg38
F2121.1801109313965
ssI387
(dp1583
g21
F0.9927272727272727
sg22
g23
(g27
S'$\xfa\x8d\xc9\xddqE\xc0'
p1584
tp1585
Rp1586
sg33
F0.9818181818181818
sg34
g37
sg38
F2126.6718831062317
ssI388
(dp1587
g21
F0.9890909090909091
sg22
g23
(g27
S'$\xfa\x8d\xc9\xddqE\xc0'
p1588
tp1589
Rp1590
sg33
F0.9890909090909091
sg34
g37
sg38
F2132.15287399292
ssI389
(dp1591
g21
F0.9890909090909091
sg22
g23
(g27
S'$\xfa\x8d\xc9\xddqE\xc0'
p1592
tp1593
Rp1594
sg33
F0.9890909090909091
sg34
g37
sg38
F2137.6177020072937
ssI390
(dp1595
g21
F0.9890909090909091
sg22
g23
(g27
S'$\xfa\x8d\xc9\xddqE\xc0'
p1596
tp1597
Rp1598
sg33
F0.9890909090909091
sg34
g37
sg38
F2143.122452020645
ssI391
(dp1599
g21
F0.9854545454545455
sg22
g23
(g27
S'$\xfa\x8d\xc9\xddqE\xc0'
p1600
tp1601
Rp1602
sg33
F0.9781818181818182
sg34
g37
sg38
F2148.5842020511627
ssI392
(dp1603
g21
F0.9818181818181818
sg22
g23
(g27
S'$\xfa\x8d\xc9\xddqE\xc0'
p1604
tp1605
Rp1606
sg33
F0.9781818181818182
sg34
g37
sg38
F2154.0532829761505
ssI393
(dp1607
g21
F0.9709090909090909
sg22
g23
(g27
S'$\xfa\x8d\xc9\xddqE\xc0'
p1608
tp1609
Rp1610
sg33
F0.96
sg34
g37
sg38
F2159.5547819137573
ssI394
(dp1611
g21
F0.9745454545454545
sg22
g23
(g27
S'$\xfa\x8d\xc9\xddqE\xc0'
p1612
tp1613
Rp1614
sg33
F0.9709090909090909
sg34
g37
sg38
F2165.0170950889587
ssI395
(dp1615
g21
F0.9781818181818182
sg22
g23
(g27
S'$\xfa\x8d\xc9\xddqE\xc0'
p1616
tp1617
Rp1618
sg33
F0.9672727272727273
sg34
g37
sg38
F2170.4759159088135
ssI396
(dp1619
g21
F0.9927272727272727
sg22
g23
(g27
S'$\xfa\x8d\xc9\xddqE\xc0'
p1620
tp1621
Rp1622
sg33
F0.9854545454545455
sg34
g37
sg38
F2175.9696950912476
ssI397
(dp1623
g21
F0.9890909090909091
sg22
g23
(g27
S'$\xfa\x8d\xc9\xddqE\xc0'
p1624
tp1625
Rp1626
sg33
F0.9854545454545455
sg34
g37
sg38
F2181.431417942047
ssI398
(dp1627
g21
F0.9890909090909091
sg22
g23
(g27
S'$\xfa\x8d\xc9\xddqE\xc0'
p1628
tp1629
Rp1630
sg33
F0.9890909090909091
sg34
g37
sg38
F2186.9076409339905
ssI399
(dp1631
g21
F0.9854545454545455
sg22
g23
(g27
S'$\xfa\x8d\xc9\xddqE\xc0'
p1632
tp1633
Rp1634
sg33
F0.9854545454545455
sg34
g37
sg38
F2192.4219501018524
ssI400
(dp1635
g21
F0.9890909090909091
sg22
g23
(g27
S'$\xfa\x8d\xc9\xddqE\xc0'
p1636
tp1637
Rp1638
sg33
F0.9818181818181818
sg34
g37
sg38
F2197.9036190509796
ssI401
(dp1639
g21
F0.9890909090909091
sg22
g23
(g27
S'$\xfa\x8d\xc9\xddqE\xc0'
p1640
tp1641
Rp1642
sg33
F0.9672727272727273
sg34
g37
sg38
F2203.3777990341187
ssI402
(dp1643
g21
F0.9818181818181818
sg22
g23
(g27
S'$\xfa\x8d\xc9\xddqE\xc0'
p1644
tp1645
Rp1646
sg33
F0.9709090909090909
sg34
g37
sg38
F2208.869656085968
ssI403
(dp1647
g21
F0.9781818181818182
sg22
g23
(g27
S'$\xfa\x8d\xc9\xddqE\xc0'
p1648
tp1649
Rp1650
sg33
F0.9745454545454545
sg34
g37
sg38
F2214.336995124817
ssI404
(dp1651
g21
F0.9927272727272727
sg22
g23
(g27
S'$\xfa\x8d\xc9\xddqE\xc0'
p1652
tp1653
Rp1654
sg33
F0.9818181818181818
sg34
g37
sg38
F2219.7935919761658
ssI405
(dp1655
g21
F0.9890909090909091
sg22
g23
(g27
S'$\xfa\x8d\xc9\xddqE\xc0'
p1656
tp1657
Rp1658
sg33
F0.9890909090909091
sg34
g37
sg38
F2225.299745082855
ssI406
(dp1659
g21
F0.9890909090909091
sg22
g23
(g27
S'$\xfa\x8d\xc9\xddqE\xc0'
p1660
tp1661
Rp1662
sg33
F0.9890909090909091
sg34
g37
sg38
F2230.8168120384216
ssI407
(dp1663
g21
F0.9890909090909091
sg22
g23
(g27
S'$\xfa\x8d\xc9\xddqE\xc0'
p1664
tp1665
Rp1666
sg33
F0.9781818181818182
sg34
g37
sg38
F2236.266804933548
ssI408
(dp1667
g21
F0.9818181818181818
sg22
g23
(g27
S'$\xfa\x8d\xc9\xddqE\xc0'
p1668
tp1669
Rp1670
sg33
F0.9781818181818182
sg34
g37
sg38
F2241.771512031555
ssI409
(dp1671
g21
F0.9781818181818182
sg22
g23
(g27
S'$\xfa\x8d\xc9\xddqE\xc0'
p1672
tp1673
Rp1674
sg33
F0.9781818181818182
sg34
g37
sg38
F2247.300579071045
ssI410
(dp1675
g21
F0.9818181818181818
sg22
g23
(g27
S'$\xfa\x8d\xc9\xddqE\xc0'
p1676
tp1677
Rp1678
sg33
F0.9709090909090909
sg34
g37
sg38
F2252.7412650585175
ssI411
(dp1679
g21
F0.9781818181818182
sg22
g23
(g27
S'$\xfa\x8d\xc9\xddqE\xc0'
p1680
tp1681
Rp1682
sg33
F0.9781818181818182
sg34
g37
sg38
F2258.234771966934
ssI412
(dp1683
g21
F0.9781818181818182
sg22
g23
(g27
S'$\xfa\x8d\xc9\xddqE\xc0'
p1684
tp1685
Rp1686
sg33
F0.9745454545454545
sg34
g37
sg38
F2263.743907928467
ssI413
(dp1687
g21
F0.9927272727272727
sg22
g23
(g27
S'$\xfa\x8d\xc9\xddqE\xc0'
p1688
tp1689
Rp1690
sg33
F0.9818181818181818
sg34
g37
sg38
F2269.189215898514
ssI414
(dp1691
g21
F0.9890909090909091
sg22
g23
(g27
S'$\xfa\x8d\xc9\xddqE\xc0'
p1692
tp1693
Rp1694
sg33
F0.9890909090909091
sg34
g37
sg38
F2274.6932439804077
ssI415
(dp1695
g21
F0.9963636363636363
sg22
g23
(g27
S'$\xfa\x8d\xc9\xddqE\xc0'
p1696
tp1697
Rp1698
sg33
F0.9781818181818182
sg34
g37
sg38
F2280.2178831100464
ssI416
(dp1699
g21
F0.9818181818181818
sg22
g23
(g27
S'$\xfa\x8d\xc9\xddqE\xc0'
p1700
tp1701
Rp1702
sg33
F0.9745454545454545
sg34
g37
sg38
F2285.655077934265
ssI417
(dp1703
g21
F0.9781818181818182
sg22
g23
(g27
S'$\xfa\x8d\xc9\xddqE\xc0'
p1704
tp1705
Rp1706
sg33
F0.9745454545454545
sg34
g37
sg38
F2291.1663880348206
ssI418
(dp1707
g21
F0.9890909090909091
sg22
g23
(g27
S'$\xfa\x8d\xc9\xddqE\xc0'
p1708
tp1709
Rp1710
sg33
F0.9709090909090909
sg34
g37
sg38
F2296.6727299690247
ssI419
(dp1711
g21
F0.9818181818181818
sg22
g23
(g27
S'$\xfa\x8d\xc9\xddqE\xc0'
p1712
tp1713
Rp1714
sg33
F0.9781818181818182
sg34
g37
sg38
F2302.145980119705
ssI420
(dp1715
g21
F0.9781818181818182
sg22
g23
(g27
S'$\xfa\x8d\xc9\xddqE\xc0'
p1716
tp1717
Rp1718
sg33
F0.9781818181818182
sg34
g37
sg38
F2307.665120124817
ssI421
(dp1719
g21
F0.9818181818181818
sg22
g23
(g27
S'$\xfa\x8d\xc9\xddqE\xc0'
p1720
tp1721
Rp1722
sg33
F0.9781818181818182
sg34
g37
sg38
F2313.1336829662323
ssI422
(dp1723
g21
F0.9927272727272727
sg22
g23
(g27
S'$\xfa\x8d\xc9\xddqE\xc0'
p1724
tp1725
Rp1726
sg33
F0.9927272727272727
sg34
g37
sg38
F2318.6221101284027
ssI423
(dp1727
g21
F0.9963636363636363
sg22
g23
(g27
S'$\xfa\x8d\xc9\xddqE\xc0'
p1728
tp1729
Rp1730
sg33
F0.9890909090909091
sg34
g37
sg38
F2324.119719028473
ssI424
(dp1731
g21
F0.9854545454545455
sg22
g23
(g27
S'$\xfa\x8d\xc9\xddqE\xc0'
p1732
tp1733
Rp1734
sg33
F0.9745454545454545
sg34
g37
sg38
F2329.5985701084137
ssI425
(dp1735
g21
F0.9854545454545455
sg22
g23
(g27
S'$\xfa\x8d\xc9\xddqE\xc0'
p1736
tp1737
Rp1738
sg33
F0.9709090909090909
sg34
g37
sg38
F2335.074136018753
ssI426
(dp1739
g21
F0.9890909090909091
sg22
g23
(g27
S'$\xfa\x8d\xc9\xddqE\xc0'
p1740
tp1741
Rp1742
sg33
F0.9709090909090909
sg34
g37
sg38
F2340.600557088852
ssI427
(dp1743
g21
F0.9963636363636363
sg22
g23
(g27
S'$\xfa\x8d\xc9\xddqE\xc0'
p1744
tp1745
Rp1746
sg33
F0.9781818181818182
sg34
g37
sg38
F2346.1086320877075
ssI428
(dp1747
g21
F0.9745454545454545
sg22
g23
(g27
S'$\xfa\x8d\xc9\xddqE\xc0'
p1748
tp1749
Rp1750
sg33
F0.9745454545454545
sg34
g37
sg38
F2351.572205066681
ssI429
(dp1751
g21
F0.9745454545454545
sg22
g23
(g27
S'$\xfa\x8d\xc9\xddqE\xc0'
p1752
tp1753
Rp1754
sg33
F0.9745454545454545
sg34
g37
sg38
F2357.0771210193634
ssI430
(dp1755
g21
F0.9818181818181818
sg22
g23
(g27
S'$\xfa\x8d\xc9\xddqE\xc0'
p1756
tp1757
Rp1758
sg33
F0.9709090909090909
sg34
g37
sg38
F2362.5558609962463
ssI431
(dp1759
g21
F0.9927272727272727
sg22
g23
(g27
S'$\xfa\x8d\xc9\xddqE\xc0'
p1760
tp1761
Rp1762
sg33
F0.9890909090909091
sg34
g37
sg38
F2368.0250251293182
ssI432
(dp1763
g21
F0.9854545454545455
sg22
g23
(g27
S'$\xfa\x8d\xc9\xddqE\xc0'
p1764
tp1765
Rp1766
sg33
F0.9745454545454545
sg34
g37
sg38
F2373.520352125168
ssI433
(dp1767
g21
F0.9781818181818182
sg22
g23
(g27
S'$\xfa\x8d\xc9\xddqE\xc0'
p1768
tp1769
Rp1770
sg33
F0.9745454545454545
sg34
g37
sg38
F2378.9950869083405
ssI434
(dp1771
g21
F0.9818181818181818
sg22
g23
(g27
S'$\xfa\x8d\xc9\xddqE\xc0'
p1772
tp1773
Rp1774
sg33
F0.9781818181818182
sg34
g37
sg38
F2384.4585530757904
ssI435
(dp1775
g21
F0.9927272727272727
sg22
g23
(g27
S'$\xfa\x8d\xc9\xddqE\xc0'
p1776
tp1777
Rp1778
sg33
F0.9781818181818182
sg34
g37
sg38
F2389.943016052246
ssI436
(dp1779
g21
F0.9927272727272727
sg22
g23
(g27
S'$\xfa\x8d\xc9\xddqE\xc0'
p1780
tp1781
Rp1782
sg33
F0.9781818181818182
sg34
g37
sg38
F2395.401741027832
ssI437
(dp1783
g21
F0.9781818181818182
sg22
g23
(g27
S'$\xfa\x8d\xc9\xddqE\xc0'
p1784
tp1785
Rp1786
sg33
F0.9745454545454545
sg34
g37
sg38
F2400.873354911804
ssI438
(dp1787
g21
F0.9781818181818182
sg22
g23
(g27
S'$\xfa\x8d\xc9\xddqE\xc0'
p1788
tp1789
Rp1790
sg33
F0.9745454545454545
sg34
g37
sg38
F2406.3592779636383
ssI439
(dp1791
g21
F0.9854545454545455
sg22
g23
(g27
S'$\xfa\x8d\xc9\xddqE\xc0'
p1792
tp1793
Rp1794
sg33
F0.9745454545454545
sg34
g37
sg38
F2411.845051050186
ssI440
(dp1795
g21
F0.9963636363636363
sg22
g23
(g27
S'$\xfa\x8d\xc9\xddqE\xc0'
p1796
tp1797
Rp1798
sg33
F0.9963636363636363
sg34
g37
sg38
F2417.277853012085
ssI441
(dp1799
g21
F0.9854545454545455
sg22
g23
(g27
S'$\xfa\x8d\xc9\xddqE\xc0'
p1800
tp1801
Rp1802
sg33
F0.9745454545454545
sg34
g37
sg38
F2422.7627210617065
ssI442
(dp1803
g21
F0.9818181818181818
sg22
g23
(g27
S'$\xfa\x8d\xc9\xddqE\xc0'
p1804
tp1805
Rp1806
sg33
F0.9745454545454545
sg34
g37
sg38
F2428.2280650138855
ssI443
(dp1807
g21
F0.9854545454545455
sg22
g23
(g27
S'$\xfa\x8d\xc9\xddqE\xc0'
p1808
tp1809
Rp1810
sg33
F0.9781818181818182
sg34
g37
sg38
F2433.6289789676666
ssI444
(dp1811
g21
F0.9927272727272727
sg22
g23
(g27
S'$\xfa\x8d\xc9\xddqE\xc0'
p1812
tp1813
Rp1814
sg33
F0.9927272727272727
sg34
g37
sg38
F2439.1021530628204
ssI445
(dp1815
g21
F0.9927272727272727
sg22
g23
(g27
S'$\xfa\x8d\xc9\xddqE\xc0'
p1816
tp1817
Rp1818
sg33
F0.9818181818181818
sg34
g37
sg38
F2444.576667070389
ssI446
(dp1819
g21
F0.9781818181818182
sg22
g23
(g27
S'$\xfa\x8d\xc9\xddqE\xc0'
p1820
tp1821
Rp1822
sg33
F0.9745454545454545
sg34
g37
sg38
F2449.984524011612
ssI447
(dp1823
g21
F0.9781818181818182
sg22
g23
(g27
S'$\xfa\x8d\xc9\xddqE\xc0'
p1824
tp1825
Rp1826
sg33
F0.9781818181818182
sg34
g37
sg38
F2455.4455189704895
ssI448
(dp1827
g21
F0.9781818181818182
sg22
g23
(g27
S'$\xfa\x8d\xc9\xddqE\xc0'
p1828
tp1829
Rp1830
sg33
F0.9709090909090909
sg34
g37
sg38
F2460.9509139060974
ssI449
(dp1831
g21
F0.9890909090909091
sg22
g23
(g27
S'$\xfa\x8d\xc9\xddqE\xc0'
p1832
tp1833
Rp1834
sg33
F0.9781818181818182
sg34
g37
sg38
F2466.3704040050507
ssI450
(dp1835
g21
F0.9890909090909091
sg22
g23
(g27
S'$\xfa\x8d\xc9\xddqE\xc0'
p1836
tp1837
Rp1838
sg33
F0.9781818181818182
sg34
g37
sg38
F2471.849662065506
ssI451
(dp1839
g21
F0.9854545454545455
sg22
g23
(g27
S'$\xfa\x8d\xc9\xddqE\xc0'
p1840
tp1841
Rp1842
sg33
F0.9781818181818182
sg34
g37
sg38
F2477.3236339092255
ssI452
(dp1843
g21
F0.9854545454545455
sg22
g23
(g27
S'$\xfa\x8d\xc9\xddqE\xc0'
p1844
tp1845
Rp1846
sg33
F0.9854545454545455
sg34
g37
sg38
F2482.753667116165
ssI453
(dp1847
g21
F0.9890909090909091
sg22
g23
(g27
S'$\xfa\x8d\xc9\xddqE\xc0'
p1848
tp1849
Rp1850
sg33
F0.9890909090909091
sg34
g37
sg38
F2488.2168579101562
ssI454
(dp1851
g21
F0.9927272727272727
sg22
g23
(g27
S'$\xfa\x8d\xc9\xddqE\xc0'
p1852
tp1853
Rp1854
sg33
F0.9781818181818182
sg34
g37
sg38
F2493.679029941559
ssI455
(dp1855
g21
F0.9781818181818182
sg22
g23
(g27
S'$\xfa\x8d\xc9\xddqE\xc0'
p1856
tp1857
Rp1858
sg33
F0.9781818181818182
sg34
g37
sg38
F2499.096071958542
ssI456
(dp1859
g21
F0.9781818181818182
sg22
g23
(g27
S'$\xfa\x8d\xc9\xddqE\xc0'
p1860
tp1861
Rp1862
sg33
F0.9781818181818182
sg34
g37
sg38
F2504.5735700130463
ssI457
(dp1863
g21
F0.9854545454545455
sg22
g23
(g27
S'$\xfa\x8d\xc9\xddqE\xc0'
p1864
tp1865
Rp1866
sg33
F0.9818181818181818
sg34
g37
sg38
F2510.013684988022
ssI458
(dp1867
g21
F0.9927272727272727
sg22
g23
(g27
S'$\xfa\x8d\xc9\xddqE\xc0'
p1868
tp1869
Rp1870
sg33
F0.9781818181818182
sg34
g37
sg38
F2515.461604118347
ssI459
(dp1871
g21
F0.9781818181818182
sg22
g23
(g27
S'$\xfa\x8d\xc9\xddqE\xc0'
p1872
tp1873
Rp1874
sg33
F0.9781818181818182
sg34
g37
sg38
F2520.9515879154205
ssI460
(dp1875
g21
F0.9781818181818182
sg22
g23
(g27
S'$\xfa\x8d\xc9\xddqE\xc0'
p1876
tp1877
Rp1878
sg33
F0.9781818181818182
sg34
g37
sg38
F2526.404674053192
ssI461
(dp1879
g21
F0.9927272727272727
sg22
g23
(g27
S'$\xfa\x8d\xc9\xddqE\xc0'
p1880
tp1881
Rp1882
sg33
F0.9818181818181818
sg34
g37
sg38
F2531.876271009445
ssI462
(dp1883
g21
F0.9890909090909091
sg22
g23
(g27
S'$\xfa\x8d\xc9\xddqE\xc0'
p1884
tp1885
Rp1886
sg33
F0.9854545454545455
sg34
g37
sg38
F2537.337886095047
ssI463
(dp1887
g21
F0.9927272727272727
sg22
g23
(g27
S'$\xfa\x8d\xc9\xddqE\xc0'
p1888
tp1889
Rp1890
sg33
F0.9854545454545455
sg34
g37
sg38
F2542.7921180725098
ssI464
(dp1891
g21
F0.9745454545454545
sg22
g23
(g27
S'$\xfa\x8d\xc9\xddqE\xc0'
p1892
tp1893
Rp1894
sg33
F0.9709090909090909
sg34
g37
sg38
F2548.2496659755707
ssI465
(dp1895
g21
F0.9709090909090909
sg22
g23
(g27
S'$\xfa\x8d\xc9\xddqE\xc0'
p1896
tp1897
Rp1898
sg33
F0.9709090909090909
sg34
g37
sg38
F2553.7322521209717
ssI466
(dp1899
g21
F0.9890909090909091
sg22
g23
(g27
S'$\xfa\x8d\xc9\xddqE\xc0'
p1900
tp1901
Rp1902
sg33
F0.9709090909090909
sg34
g37
sg38
F2559.1705100536346
ssI467
(dp1903
g21
F0.9890909090909091
sg22
g23
(g27
S'$\xfa\x8d\xc9\xddqE\xc0'
p1904
tp1905
Rp1906
sg33
F0.9709090909090909
sg34
g37
sg38
F2564.626811027527
ssI468
(dp1907
g21
F0.9854545454545455
sg22
g23
(g27
S'$\xfa\x8d\xc9\xddqE\xc0'
p1908
tp1909
Rp1910
sg33
F0.9781818181818182
sg34
g37
sg38
F2570.1014029979706
ssI469
(dp1911
g21
F0.9854545454545455
sg22
g23
(g27
S'$\xfa\x8d\xc9\xddqE\xc0'
p1912
tp1913
Rp1914
sg33
F0.9781818181818182
sg34
g37
sg38
F2575.5420730113983
ssI470
(dp1915
g21
F0.9927272727272727
sg22
g23
(g27
S'$\xfa\x8d\xc9\xddqE\xc0'
p1916
tp1917
Rp1918
sg33
F0.9854545454545455
sg34
g37
sg38
F2580.994054079056
ssI471
(dp1919
g21
F0.9927272727272727
sg22
g23
(g27
S'$\xfa\x8d\xc9\xddqE\xc0'
p1920
tp1921
Rp1922
sg33
F0.9890909090909091
sg34
g37
sg38
F2586.47416305542
ssI472
(dp1923
g21
F0.9927272727272727
sg22
g23
(g27
S'$\xfa\x8d\xc9\xddqE\xc0'
p1924
tp1925
Rp1926
sg33
F0.9890909090909091
sg34
g37
sg38
F2591.899883031845
ssI473
(dp1927
g21
F0.9854545454545455
sg22
g23
(g27
S'$\xfa\x8d\xc9\xddqE\xc0'
p1928
tp1929
Rp1930
sg33
F0.9745454545454545
sg34
g37
sg38
F2597.324870109558
ssI474
(dp1931
g21
F0.9745454545454545
sg22
g23
(g27
S'$\xfa\x8d\xc9\xddqE\xc0'
p1932
tp1933
Rp1934
sg33
F0.9745454545454545
sg34
g37
sg38
F2602.781548976898
ssI475
(dp1935
g21
F0.9818181818181818
sg22
g23
(g27
S'$\xfa\x8d\xc9\xddqE\xc0'
p1936
tp1937
Rp1938
sg33
F0.9745454545454545
sg34
g37
sg38
F2608.204421043396
ssI476
(dp1939
g21
F0.9890909090909091
sg22
g23
(g27
S'$\xfa\x8d\xc9\xddqE\xc0'
p1940
tp1941
Rp1942
sg33
F0.9636363636363636
sg34
g37
sg38
F2613.6106979846954
ssI477
(dp1943
g21
F0.9781818181818182
sg22
g23
(g27
S'$\xfa\x8d\xc9\xddqE\xc0'
p1944
tp1945
Rp1946
sg33
F0.9781818181818182
sg34
g37
sg38
F2619.07226395607
ssI478
(dp1947
g21
F0.9854545454545455
sg22
g23
(g27
S'$\xfa\x8d\xc9\xddqE\xc0'
p1948
tp1949
Rp1950
sg33
F0.9781818181818182
sg34
g37
sg38
F2624.514060974121
ssI479
(dp1951
g21
F0.9927272727272727
sg22
g23
(g27
S'$\xfa\x8d\xc9\xddqE\xc0'
p1952
tp1953
Rp1954
sg33
F0.9927272727272727
sg34
g37
sg38
F2629.922331094742
ssI480
(dp1955
g21
F0.9890909090909091
sg22
g23
(g27
S'$\xfa\x8d\xc9\xddqE\xc0'
p1956
tp1957
Rp1958
sg33
F0.9818181818181818
sg34
g37
sg38
F2635.4030990600586
ssI481
(dp1959
g21
F0.9818181818181818
sg22
g23
(g27
S'$\xfa\x8d\xc9\xddqE\xc0'
p1960
tp1961
Rp1962
sg33
F0.9818181818181818
sg34
g37
sg38
F2640.840735912323
ssI482
(dp1963
g21
F0.9927272727272727
sg22
g23
(g27
S'$\xfa\x8d\xc9\xddqE\xc0'
p1964
tp1965
Rp1966
sg33
F0.9745454545454545
sg34
g37
sg38
F2646.2200078964233
ssI483
(dp1967
g21
F0.9818181818181818
sg22
g23
(g27
S'$\xfa\x8d\xc9\xddqE\xc0'
p1968
tp1969
Rp1970
sg33
F0.9781818181818182
sg34
g37
sg38
F2651.683347940445
ssI484
(dp1971
g21
F0.9818181818181818
sg22
g23
(g27
S'$\xfa\x8d\xc9\xddqE\xc0'
p1972
tp1973
Rp1974
sg33
F0.9672727272727273
sg34
g37
sg38
F2657.0678329467773
ssI485
(dp1975
g21
F0.9709090909090909
sg22
g23
(g27
S'$\xfa\x8d\xc9\xddqE\xc0'
p1976
tp1977
Rp1978
sg33
F0.9672727272727273
sg34
g37
sg38
F2662.479474067688
ssI486
(dp1979
g21
F0.9818181818181818
sg22
g23
(g27
S'$\xfa\x8d\xc9\xddqE\xc0'
p1980
tp1981
Rp1982
sg33
F0.9745454545454545
sg34
g37
sg38
F2667.8538501262665
ssI487
(dp1983
g21
F0.9854545454545455
sg22
g23
(g27
S'$\xfa\x8d\xc9\xddqE\xc0'
p1984
tp1985
Rp1986
sg33
F0.9781818181818182
sg34
g37
sg38
F2673.270924091339
ssI488
(dp1987
g21
F0.9927272727272727
sg22
g23
(g27
S'$\xfa\x8d\xc9\xddqE\xc0'
p1988
tp1989
Rp1990
sg33
F0.9927272727272727
sg34
g37
sg38
F2678.655725955963
ssI489
(dp1991
g21
F0.9890909090909091
sg22
g23
(g27
S'$\xfa\x8d\xc9\xddqE\xc0'
p1992
tp1993
Rp1994
sg33
F0.9890909090909091
sg34
g37
sg38
F2684.051817893982
ssI490
(dp1995
g21
F0.9890909090909091
sg22
g23
(g27
S'$\xfa\x8d\xc9\xddqE\xc0'
p1996
tp1997
Rp1998
sg33
F0.9890909090909091
sg34
g37
sg38
F2689.467624902725
ssI491
(dp1999
g21
F0.9927272727272727
sg22
g23
(g27
S'$\xfa\x8d\xc9\xddqE\xc0'
p2000
tp2001
Rp2002
sg33
F0.9854545454545455
sg34
g37
sg38
F2694.8530309200287
ssI492
(dp2003
g21
F0.9781818181818182
sg22
g23
(g27
S'$\xfa\x8d\xc9\xddqE\xc0'
p2004
tp2005
Rp2006
sg33
F0.9781818181818182
sg34
g37
sg38
F2700.2613270282745
ssI493
(dp2007
g21
F0.9818181818181818
sg22
g23
(g27
S'$\xfa\x8d\xc9\xddqE\xc0'
p2008
tp2009
Rp2010
sg33
F0.9745454545454545
sg34
g37
sg38
F2705.675728082657
ssI494
(dp2011
g21
F0.9745454545454545
sg22
g23
(g27
S'$\xfa\x8d\xc9\xddqE\xc0'
p2012
tp2013
Rp2014
sg33
F0.9672727272727273
sg34
g37
sg38
F2711.072355031967
ssI495
(dp2015
g21
F0.9890909090909091
sg22
g23
(g27
S'$\xfa\x8d\xc9\xddqE\xc0'
p2016
tp2017
Rp2018
sg33
F0.9636363636363636
sg34
g37
sg38
F2716.465455055237
ssI496
(dp2019
g21
F0.9854545454545455
sg22
g23
(g27
S'$\xfa\x8d\xc9\xddqE\xc0'
p2020
tp2021
Rp2022
sg33
F0.9781818181818182
sg34
g37
sg38
F2721.893564939499
ssI497
(dp2023
g21
F0.9927272727272727
sg22
g23
(g27
S'$\xfa\x8d\xc9\xddqE\xc0'
p2024
tp2025
Rp2026
sg33
F0.9890909090909091
sg34
g37
sg38
F2727.279925107956
ssI498
(dp2027
g21
F0.9854545454545455
sg22
g23
(g27
S'$\xfa\x8d\xc9\xddqE\xc0'
p2028
tp2029
Rp2030
sg33
F0.9854545454545455
sg34
g37
sg38
F2732.6652359962463
ssI499
(dp2031
g21
F0.9890909090909091
sg22
g23
(g27
S'$\xfa\x8d\xc9\xddqE\xc0'
p2032
tp2033
Rp2034
sg33
F0.9854545454545455
sg34
g37
sg38
F2738.099735021591
sstp2035
.