(ccopy_reg
_reconstructor
p0
(cargparse
Namespace
p1
c__builtin__
object
p2
Ntp3
Rp4
(dp5
S'opt_problem'
p6
S'data/network_Problem_hypercube_500demands_100catalog_size_mincap_3maxcap_3_128_powerlaw_rate1.0_20qnodes_0.9congestion_Greedy1'
p7
sS'innerIterations'
p8
I10
sS'trace_file'
p9
S'traces/network_Problem_hypercube_500demands_100catalog_size_mincap_3maxcap_3_128_powerlaw_rate1.0_20qnodes_0.9congestionGreedy1'
p10
sS'logLevel'
p11
S'INFO'
p12
sS'debug_level'
p13
g12
sS'problem'
p14
S'data/network_Problem_hypercube_500demands_100catalog_size_mincap_3maxcap_3_128_powerlaw_rate1.0_20qnodes_0.9congestion'
p15
sS'logfile'
p16
S'logfiles/network_Problem_hypercube_500demands_100catalog_size_mincap_3maxcap_3_128_powerlaw_rate1.0_20qnodes_0.9congestion_Greedy1.log'
p17
sS'method'
p18
S'Greedy1'
p19
sS'outerIterations'
p20
I1
sb(dp21
I0
(dp22
S'CONSTRAINT'
p23
F0.9922928709055877
sS'OBJ'
p24
cnumpy.core.multiarray
scalar
p25
(cnumpy
dtype
p26
(S'f8'
p27
I0
I1
tp28
Rp29
(I3
S'<'
p30
NNNI-1
I-1
I0
tp31
bS'Ps\xbcU-V>\xc0'
p32
tp33
Rp34
sS'time'
p35
F6.71018385887146
sstp36
.