(i__main__
Problem
p0
(dp1
S'demands'
p2
(lp3
(dp4
S'query_source'
p5
I39
sS'item'
p6
cnumpy.core.multiarray
scalar
p7
(cnumpy
dtype
p8
(S'i8'
p9
I0
I1
tp10
Rp11
(I3
S'<'
p12
NNNI-1
I-1
I0
tp13
bS'!\x00\x00\x00\x00\x00\x00\x00'
p14
tp15
Rp16
sS'rate'
p17
F10.0
sS'item_source'
p18
I50
sS'path'
p19
(lp20
I39
aI40
aI50
asa(dp21
g5
I39
sg6
g7
(g11
S'\x04\x00\x00\x00\x00\x00\x00\x00'
p22
tp23
Rp24
sg17
F10.0
sg18
I14
sg19
(lp25
I39
aI43
aI14
asa(dp26
g5
I66
sg6
g7
(g11
S'\x05\x00\x00\x00\x00\x00\x00\x00'
p27
tp28
Rp29
sg17
F10.0
sg18
I34
sg19
(lp30
I66
aI45
aI34
asa(dp31
g5
I66
sg6
g7
(g11
S'\x00\x00\x00\x00\x00\x00\x00\x00'
p32
tp33
Rp34
sg17
F10.0
sg18
I83
sg19
(lp35
I66
aI44
aI83
asa(dp36
g5
I98
sg6
g7
(g11
S'5\x00\x00\x00\x00\x00\x00\x00'
p37
tp38
Rp39
sg17
F10.0
sg18
I37
sg19
(lp40
I98
aI54
aI37
asa(dp41
g5
I98
sg6
g7
(g11
S'<\x00\x00\x00\x00\x00\x00\x00'
p42
tp43
Rp44
sg17
F10.0
sg18
I59
sg19
(lp45
I98
aI59
asa(dp46
g5
I94
sg6
g7
(g11
S'\x00\x00\x00\x00\x00\x00\x00\x00'
p47
tp48
Rp49
sg17
F10.0
sg18
I83
sg19
(lp50
I94
aI83
asa(dp51
g5
I94
sg6
g7
(g11
S'\x04\x00\x00\x00\x00\x00\x00\x00'
p52
tp53
Rp54
sg17
F10.0
sg18
I14
sg19
(lp55
I94
aI73
aI14
asa(dp56
g5
I24
sg6
g7
(g11
S'\x19\x00\x00\x00\x00\x00\x00\x00'
p57
tp58
Rp59
sg17
F10.0
sg18
I36
sg19
(lp60
I24
aI0
aI36
asa(dp61
g5
I24
sg6
g7
(g11
S')\x00\x00\x00\x00\x00\x00\x00'
p62
tp63
Rp64
sg17
F10.0
sg18
I52
sg19
(lp65
I24
aI26
aI52
asa(dp66
g5
I10
sg6
g7
(g11
S',\x00\x00\x00\x00\x00\x00\x00'
p67
tp68
Rp69
sg17
F10.0
sg18
I53
sg19
(lp70
I10
aI33
aI53
asa(dp71
g5
I10
sg6
g7
(g11
S'\x0b\x00\x00\x00\x00\x00\x00\x00'
p72
tp73
Rp74
sg17
F10.0
sg18
I95
sg19
(lp75
I10
aI95
asa(dp76
g5
I56
sg6
g7
(g11
S'\x1e\x00\x00\x00\x00\x00\x00\x00'
p77
tp78
Rp79
sg17
F10.0
sg18
I92
sg19
(lp80
I56
aI75
aI92
asa(dp81
g5
I56
sg6
g7
(g11
S'\x05\x00\x00\x00\x00\x00\x00\x00'
p82
tp83
Rp84
sg17
F10.0
sg18
I34
sg19
(lp85
I56
aI65
aI34
asa(dp86
g5
I47
sg6
g7
(g11
S'\x07\x00\x00\x00\x00\x00\x00\x00'
p87
tp88
Rp89
sg17
F10.0
sg18
I79
sg19
(lp90
I47
aI49
aI79
asa(dp91
g5
I47
sg6
g7
(g11
S'\x01\x00\x00\x00\x00\x00\x00\x00'
p92
tp93
Rp94
sg17
F10.0
sg18
I75
sg19
(lp95
I47
aI0
aI75
asa(dp96
g5
I20
sg6
g7
(g11
S'\x01\x00\x00\x00\x00\x00\x00\x00'
p97
tp98
Rp99
sg17
F10.0
sg18
I75
sg19
(lp100
I20
aI75
asa(dp101
g5
I20
sg6
g7
(g11
S'\x13\x00\x00\x00\x00\x00\x00\x00'
p102
tp103
Rp104
sg17
F10.0
sg18
I17
sg19
(lp105
I20
aI75
aI17
asa(dp106
g5
I70
sg6
g7
(g11
S'\x18\x00\x00\x00\x00\x00\x00\x00'
p107
tp108
Rp109
sg17
F10.0
sg18
I37
sg19
(lp110
I70
aI34
aI37
asa(dp111
g5
I70
sg6
g7
(g11
S'\n\x00\x00\x00\x00\x00\x00\x00'
p112
tp113
Rp114
sg17
F10.0
sg18
I58
sg19
(lp115
I70
aI64
aI58
asa(dp116
g5
I51
sg6
g7
(g11
S'\x02\x00\x00\x00\x00\x00\x00\x00'
p117
tp118
Rp119
sg17
F10.0
sg18
I50
sg19
(lp120
I51
aI40
aI50
asa(dp121
g5
I51
sg6
g7
(g11
S'\x02\x00\x00\x00\x00\x00\x00\x00'
p122
tp123
Rp124
sg17
F10.0
sg18
I50
sg19
(lp125
I51
aI40
aI50
asa(dp126
g5
I28
sg6
g7
(g11
S'\x01\x00\x00\x00\x00\x00\x00\x00'
p127
tp128
Rp129
sg17
F10.0
sg18
I75
sg19
(lp130
I28
aI0
aI75
asa(dp131
g5
I28
sg6
g7
(g11
S'#\x00\x00\x00\x00\x00\x00\x00'
p132
tp133
Rp134
sg17
F10.0
sg18
I31
sg19
(lp135
I28
aI31
asa(dp136
g5
I58
sg6
g7
(g11
S'\x00\x00\x00\x00\x00\x00\x00\x00'
p137
tp138
Rp139
sg17
F10.0
sg18
I83
sg19
(lp140
I58
aI34
aI65
aI83
asa(dp141
g5
I58
sg6
g7
(g11
S'\r\x00\x00\x00\x00\x00\x00\x00'
p142
tp143
Rp144
sg17
F10.0
sg18
I23
sg19
(lp145
I58
aI66
aI23
asa(dp146
g5
I96
sg6
g7
(g11
S'\x01\x00\x00\x00\x00\x00\x00\x00'
p147
tp148
Rp149
sg17
F10.0
sg18
I75
sg19
(lp150
I96
aI98
aI75
asa(dp151
g5
I96
sg6
g7
(g11
S'\x00\x00\x00\x00\x00\x00\x00\x00'
p152
tp153
Rp154
sg17
F10.0
sg18
I83
sg19
(lp155
I96
aI72
aI97
aI83
asa(dp156
g5
I5
sg6
g7
(g11
S'\x19\x00\x00\x00\x00\x00\x00\x00'
p157
tp158
Rp159
sg17
F10.0
sg18
I36
sg19
(lp160
I5
aI10
aI72
aI36
asa(dp161
g5
I5
sg6
g7
(g11
S'\x1c\x00\x00\x00\x00\x00\x00\x00'
p162
tp163
Rp164
sg17
F10.0
sg18
I83
sg19
(lp165
I5
aI44
aI83
asa(dp166
g5
I5
sg6
g7
(g11
S'\x00\x00\x00\x00\x00\x00\x00\x00'
p167
tp168
Rp169
sg17
F10.0
sg18
I83
sg19
(lp170
I5
aI44
aI83
asa(dp171
g5
I63
sg6
g7
(g11
S'6\x00\x00\x00\x00\x00\x00\x00'
p172
tp173
Rp174
sg17
F10.0
sg18
I62
sg19
(lp175
I63
aI60
aI62
asa(dp176
g5
I63
sg6
g7
(g11
S'\x16\x00\x00\x00\x00\x00\x00\x00'
p177
tp178
Rp179
sg17
F10.0
sg18
I29
sg19
(lp180
I63
aI66
aI29
asa(dp181
g5
I14
sg6
g7
(g11
S'\x07\x00\x00\x00\x00\x00\x00\x00'
p182
tp183
Rp184
sg17
F10.0
sg18
I79
sg19
(lp185
I14
aI73
aI84
aI79
asa(dp186
g5
I14
sg6
g7
(g11
S'\x01\x00\x00\x00\x00\x00\x00\x00'
p187
tp188
Rp189
sg17
F10.0
sg18
I75
sg19
(lp190
I14
aI56
aI75
asa(dp191
g5
I73
sg6
g7
(g11
S'\x01\x00\x00\x00\x00\x00\x00\x00'
p192
tp193
Rp194
sg17
F10.0
sg18
I75
sg19
(lp195
I73
aI56
aI75
asa(dp196
g5
I73
sg6
g7
(g11
S'\x02\x00\x00\x00\x00\x00\x00\x00'
p197
tp198
Rp199
sg17
F10.0
sg18
I50
sg19
(lp200
I73
aI5
aI50
asa(dp201
g5
I49
sg6
g7
(g11
S'\x00\x00\x00\x00\x00\x00\x00\x00'
p202
tp203
Rp204
sg17
F10.0
sg18
I83
sg19
(lp205
I49
aI44
aI83
asa(dp206
g5
I49
sg6
g7
(g11
S'\x00\x00\x00\x00\x00\x00\x00\x00'
p207
tp208
Rp209
sg17
F10.0
sg18
I83
sg19
(lp210
I49
aI44
aI83
asa(dp211
g5
I78
sg6
g7
(g11
S'\x00\x00\x00\x00\x00\x00\x00\x00'
p212
tp213
Rp214
sg17
F10.0
sg18
I83
sg19
(lp215
I78
aI1
aI65
aI83
asa(dp216
g5
I78
sg6
g7
(g11
S'\x02\x00\x00\x00\x00\x00\x00\x00'
p217
tp218
Rp219
sg17
F10.0
sg18
I50
sg19
(lp220
I78
aI1
aI50
asasS'bandwidths'
p221
(dp222
(I10
I95
tp223
F9.5
s(I51
I40
tp224
F19.0
s(I73
I14
tp225
F9.5
s(I26
I52
tp226
F9.5
s(I5
I44
tp227
F19.0
s(I75
I92
tp228
F9.5
s(I24
I26
tp229
F9.5
s(I64
I58
tp230
F9.5
s(I98
I54
tp231
F9.5
s(I54
I37
tp232
F9.5
s(I0
I36
tp233
F9.5
s(I56
I65
tp234
F9.5
s(I73
I56
tp235
F9.5
s(I24
I0
tp236
F9.5
s(I34
I37
tp237
F9.5
s(I47
I49
tp238
F9.5
s(I63
I60
tp239
F9.5
s(I75
I17
tp240
F9.5
s(I94
I73
tp241
F9.5
s(I14
I56
tp242
F9.5
s(I20
I75
tp243
F19.0
s(I70
I34
tp244
F9.5
s(I66
I44
tp245
F9.5
s(I43
I14
tp246
F9.5
s(I94
I83
tp247
F9.5
s(I73
I5
tp248
F9.5
s(I56
I75
tp249
F28.5
s(I98
I59
tp250
F9.5
s(I96
I98
tp251
F9.5
s(I65
I34
tp252
F9.5
s(I33
I53
tp253
F9.5
s(I28
I31
tp254
F9.5
s(I45
I34
tp255
F9.5
s(I49
I44
tp256
F19.0
s(I73
I84
tp257
F9.5
s(I72
I97
tp258
F9.5
s(I98
I75
tp259
F9.5
s(I47
I0
tp260
F9.5
s(I70
I64
tp261
F9.5
s(I44
I83
tp262
F47.5
s(I58
I34
tp263
F9.5
s(I1
I50
tp264
F9.5
s(I66
I45
tp265
F9.5
s(I65
I83
tp266
F19.0
s(I63
I66
tp267
F9.5
s(I39
I43
tp268
F9.5
s(I14
I73
tp269
F9.5
s(I66
I29
tp270
F9.5
s(I72
I36
tp271
F9.5
s(I10
I72
tp272
F9.5
s(I5
I50
tp273
F9.5
s(I5
I10
tp274
F9.5
s(I60
I62
tp275
F9.5
s(I39
I40
tp276
F9.5
s(I34
I65
tp277
F9.5
s(I58
I66
tp278
F9.5
s(I66
I23
tp279
F9.5
s(I0
I75
tp280
F19.0
s(I97
I83
tp281
F9.5
s(I78
I1
tp282
F19.0
s(I40
I50
tp283
F28.5
s(I10
I33
tp284
F9.5
s(I28
I0
tp285
F9.5
s(I84
I79
tp286
F9.5
s(I96
I72
tp287
F9.5
s(I1
I65
tp288
F9.5
s(I49
I79
tp289
F9.5
ssS'capacities'
p290
(dp291
I0
I2
sI1
I2
sI2
I2
sI3
I2
sI4
I2
sI5
I2
sI6
I2
sI7
I2
sI8
I2
sI9
I2
sI10
I2
sI11
I2
sI12
I2
sI13
I2
sI14
I2
sI15
I2
sI16
I2
sI17
I2
sI18
I2
sI19
I2
sI20
I2
sI21
I2
sI22
I2
sI23
I2
sI24
I2
sI25
I2
sI26
I2
sI27
I2
sI28
I2
sI29
I2
sI30
I2
sI31
I2
sI32
I2
sI33
I2
sI34
I2
sI35
I2
sI36
I2
sI37
I2
sI38
I2
sI39
I2
sI40
I2
sI41
I2
sI42
I2
sI43
I2
sI44
I2
sI45
I2
sI46
I2
sI47
I2
sI48
I2
sI49
I2
sI50
I2
sI51
I2
sI52
I2
sI53
I2
sI54
I2
sI55
I2
sI56
I2
sI57
I2
sI58
I2
sI59
I2
sI60
I2
sI61
I2
sI62
I2
sI63
I2
sI64
I2
sI65
I2
sI66
I2
sI67
I2
sI68
I2
sI69
I2
sI70
I2
sI71
I2
sI72
I2
sI73
I2
sI74
I2
sI75
I2
sI76
I2
sI77
I2
sI78
I2
sI79
I2
sI80
I2
sI81
I2
sI82
I2
sI83
I2
sI84
I2
sI85
I2
sI86
I2
sI87
I2
sI88
I2
sI89
I2
sI90
I2
sI91
I2
sI92
I2
sI93
I2
sI94
I2
sI95
I2
sI96
I2
sI97
I2
sI98
I2
sI99
I2
ssS'MAXRATE'
p292
(dp293
(g129
(I28
I0
I75
tp294
tp295
F10.0
s(g169
(I5
I44
I83
tp296
tp297
F10.0
s(g59
(I24
I0
I36
tp298
tp299
F10.0
s(g89
(I47
I49
I79
tp300
tp301
F10.0
s(g49
(I94
I83
tp302
tp303
F10.0
s(g99
(I20
I75
tp304
tp305
F10.0
s(g104
(I20
I75
I17
tp306
tp307
F10.0
s(g79
(I56
I75
I92
tp308
tp309
F10.0
s(g159
(I5
I10
I72
I36
tp310
tp311
F10.0
s(g194
(I73
I56
I75
tp312
tp313
F10.0
s(g139
(I58
I34
I65
I83
tp314
tp315
F10.0
s(g24
(I39
I43
I14
tp316
tp317
F10.0
s(g94
(I47
I0
I75
tp318
tp319
F10.0
s(g154
(I96
I72
I97
I83
tp320
tp321
F10.0
s(g189
(I14
I56
I75
tp322
tp323
F10.0
s(g134
(I28
I31
tp324
tp325
F10.0
s(g199
(I73
I5
I50
tp326
tp327
F10.0
s(g39
(I98
I54
I37
tp328
tp329
F10.0
s(g44
(I98
I59
tp330
tp331
F10.0
s(g179
(I63
I66
I29
tp332
tp333
F10.0
s(g64
(I24
I26
I52
tp334
tp335
F10.0
s(g164
(I5
I44
I83
tp336
tp337
F10.0
s(g204
(I49
I44
I83
tp338
tp339
F10.0
s(g69
(I10
I33
I53
tp340
tp341
F10.0
s(g109
(I70
I34
I37
tp342
tp343
F10.0
s(g34
(I66
I44
I83
tp344
tp345
F10.0
s(g184
(I14
I73
I84
I79
tp346
tp347
F10.0
s(g16
(I39
I40
I50
tp348
tp349
F10.0
s(g149
(I96
I98
I75
tp350
tp351
F10.0
s(g54
(I94
I73
I14
tp352
tp353
F10.0
s(g74
(I10
I95
tp354
tp355
F10.0
s(g174
(I63
I60
I62
tp356
tp357
F10.0
s(g114
(I70
I64
I58
tp358
tp359
F10.0
s(g219
(I78
I1
I50
tp360
tp361
F10.0
s(g84
(I56
I65
I34
tp362
tp363
F10.0
s(g144
(I58
I66
I23
tp364
tp365
F10.0
s(g214
(I78
I1
I65
I83
tp366
tp367
F10.0
s(g119
(I51
I40
I50
tp368
tp369
F10.0
s(g29
(I66
I45
I34
tp370
tp371
F10.0
ssS'REM'
p372
(dp373
(g129
g294
tp374
F0.0
s(g169
g296
tp375
F0.0
s(g59
g298
tp376
F0.0
s(g89
g300
tp377
F0.0
s(g49
g302
tp378
F0.0
s(g99
g304
tp379
F0.0
s(g104
g306
tp380
F0.0
s(g79
g308
tp381
F0.0
s(g159
g310
tp382
F0.0
s(g194
g312
tp383
F0.0
s(g139
g314
tp384
F0.0
s(g24
g316
tp385
F0.0
s(g94
g318
tp386
F0.0
s(g154
g320
tp387
F0.0
s(g189
g322
tp388
F0.0
s(g134
g324
tp389
F0.0
s(g199
g326
tp390
F0.0
s(g39
g328
tp391
F0.0
s(g44
g330
tp392
F0.0
s(g179
g332
tp393
F0.0
s(g64
g334
tp394
F0.0
s(g164
g336
tp395
F0.0
s(g204
g338
tp396
F0.0
s(g69
g340
tp397
F0.0
s(g109
g342
tp398
F0.0
s(g34
g344
tp399
F0.0
s(g184
g346
tp400
F0.0
s(g16
g348
tp401
F0.0
s(g149
g350
tp402
F0.0
s(g54
g352
tp403
F0.0
s(g74
g354
tp404
F0.0
s(g174
g356
tp405
F0.0
s(g114
g358
tp406
F0.0
s(g219
g360
tp407
F0.0
s(g84
g362
tp408
F0.0
s(g144
g364
tp409
F0.0
s(g214
g366
tp410
F0.0
s(g119
g368
tp411
F0.0
s(g29
g370
tp412
F0.0
ssS'VAR'
p413
(dp414
(g214
I1
tp415
F0.0
s(g199
I5
tp416
F0.0
s(g219
I78
tp417
F0.0
s(g159
I72
tp418
F0.0
s(g164
I5
tp419
F0.0
s(g189
I56
tp420
F0.0
s(g34
I83
tp421
F0.0
s(g144
I58
tp422
F0.0
s(g16
I40
tp423
F0.0
s(g16
I50
tp424
F0.0
s(g39
I37
tp425
F0.0
s(g129
I28
tp426
F0.0
s(g16
I39
tp427
F0.0
s(g184
I84
tp428
F0.0
s(g139
I58
tp429
F0.0
s(g64
I52
tp430
F0.0
s(g119
I51
tp431
F0.0
s(g114
I70
tp432
F0.0
s(g134
I31
tp433
F0.0
s(g144
I23
tp434
F0.0
s(g64
I24
tp435
F0.0
s(g29
I34
tp436
F0.0
s(g104
I75
tp437
F0.0
s(g159
I10
tp438
F0.0
s(g179
I66
tp439
F0.0
s(g54
I73
tp440
F0.0
s(g199
I73
tp441
F0.0
s(g119
I40
tp442
F0.0
s(g149
I96
tp443
F0.0
s(g174
I62
tp444
F0.0
s(g144
I66
tp445
F0.0
s(g109
I70
tp446
F0.0
s(g219
I1
tp447
F0.0
s(g204
I49
tp448
F0.0
s(g194
I73
tp449
F0.0
s(g74
I10
tp450
F0.0
s(g84
I56
tp451
F0.0
s(g44
I98
tp452
F0.0
s(g59
I0
tp453
F0.0
s(g114
I58
tp454
F0.0
s(g54
I94
tp455
F0.0
s(g139
I65
tp456
F0.0
s(g104
I17
tp457
F0.0
s(g169
I5
tp458
F0.0
s(g179
I29
tp459
F0.0
s(g69
I10
tp460
F0.0
s(g94
I0
tp461
F0.0
s(g164
I83
tp462
F0.0
s(g154
I96
tp463
F0.0
s(g119
I50
tp464
F0.0
s(g94
I47
tp465
F0.0
s(g79
I92
tp466
F0.0
s(g164
I44
tp467
F0.0
s(g89
I47
tp468
F0.0
s(g109
I37
tp469
F0.0
s(g49
I94
tp470
F0.0
s(g174
I63
tp471
F0.0
s(g99
I20
tp472
F0.0
s(g184
I73
tp473
F0.0
s(g64
I26
tp474
F0.0
s(g189
I14
tp475
F0.0
s(g109
I34
tp476
F0.0
s(g159
I5
tp477
F0.0
s(g179
I63
tp478
F0.0
s(g24
I43
tp479
F0.0
s(g149
I98
tp480
F0.0
s(g184
I14
tp481
F0.0
s(g214
I78
tp482
F0.0
s(g39
I98
tp483
F0.0
s(g89
I49
tp484
F0.0
s(g94
I75
tp485
F0.0
s(g139
I34
tp486
F0.0
s(g39
I54
tp487
F0.0
s(g29
I66
tp488
F0.0
s(g59
I24
tp489
F0.0
s(g29
I45
tp490
F0.0
s(g44
I59
tp491
F0.0
s(g154
I97
tp492
F0.0
s(g69
I53
tp493
F0.0
s(g69
I33
tp494
F0.0
s(g59
I36
tp495
F0.0
s(g154
I72
tp496
F0.0
s(g79
I56
tp497
F0.0
s(g34
I44
tp498
F0.0
s(g79
I75
tp499
F0.0
s(g134
I28
tp500
F0.0
s(g174
I60
tp501
F0.0
s(g34
I66
tp502
F0.0
s(g24
I14
tp503
F0.0
s(g84
I65
tp504
F0.0
s(g104
I20
tp505
F0.0
s(g24
I39
tp506
F0.0
s(g89
I79
tp507
F0.0
s(g74
I95
tp508
F0.0
s(g114
I64
tp509
F0.0
ssb.