(itopologyGenerator
RelaxedProblem
p0
(dp1
S'BOX'
p2
(dp3
(I7
I3
tp4
F1.0
s(I6
I28
tp5
F1.0
s(I8
I5
tp6
F1.0
s(I3
(I12
I11
I10
I9
I8
tp7
tp8
F1.0
s(I9
I0
tp9
F1.0
s(I6
(I22
I23
I24
I25
I26
I27
I28
I29
I0
I1
I2
tp10
tp11
F1.0
s(I8
(I22
I21
I20
I19
I18
I17
I16
I15
tp12
tp13
F1.0
s(I4
(I19
I20
I21
I22
I23
I24
I25
I26
I27
I28
I29
I0
I1
I2
I3
tp14
tp15
F1.0
s(I2
I27
tp16
F1.0
s(I7
(I22
I21
I20
I19
I18
I17
I16
I15
I14
I13
I12
I11
tp17
tp18
F1.0
s(I3
I2
tp19
F1.0
s(I4
I5
tp20
F1.0
s(I7
(I2
I3
I4
I5
I6
I7
I8
I9
I10
I11
tp21
tp22
F1.0
s(I3
(I21
I20
I19
I18
I17
I16
I15
I14
I13
I12
I11
I10
I9
I8
tp23
tp24
F1.0
s(I7
I22
tp25
F1.0
s(I8
I12
tp26
F1.0
s(I9
(I15
I16
I17
I18
I19
I20
I21
I22
I23
I24
tp27
tp28
F1.0
s(I8
I18
tp29
F1.0
s(I9
I19
tp30
F1.0
s(I1
I21
tp31
F1.0
s(I0
I14
tp32
F1.0
s(I3
I11
tp33
F1.0
s(I1
I15
tp34
F1.0
s(I4
I12
tp35
F1.0
s(I2
I12
tp36
F1.0
s(I5
I1
tp37
F1.0
s(I3
I17
tp38
F1.0
s(I2
(I22
I21
I20
I19
I18
tp39
tp40
F1.0
s(I6
I14
tp41
F1.0
s(I6
(I2
tp42
tp43
F1.0
s(I7
I15
tp44
F1.0
s(I2
(I23
I22
I21
I20
I19
I18
tp45
tp46
F1.0
s(I8
(I15
tp47
tp48
F1.0
s(I6
I11
tp49
F1.0
s(I2
(I15
I16
I17
I18
tp50
tp51
F1.0
s(I8
I25
tp52
F1.0
s(I9
I20
tp53
F1.0
s(I1
I0
tp54
F1.0
s(I4
I11
tp55
F1.0
s(I5
I10
tp56
F1.0
s(I3
I22
tp57
F1.0
s(I6
I1
tp58
F1.0
s(I4
I17
tp59
F1.0
s(I7
I4
tp60
F1.0
s(I5
I20
tp61
F1.0
s(I6
I27
tp62
F1.0
s(I0
(I22
I21
I20
I19
tp63
tp64
F1.0
s(I9
(I2
I1
I0
I29
I28
I27
I26
I25
I24
tp65
tp66
F1.0
s(I1
(I23
I22
I21
I20
I19
I18
I17
I16
I15
I14
I13
I12
I11
tp67
tp68
F1.0
s(I0
I28
tp69
F1.0
s(I0
I17
tp70
F1.0
s(I8
(I23
I22
I21
I20
I19
I18
I17
I16
I15
tp71
tp72
F1.0
s(I4
I24
tp73
F1.0
s(I5
I29
tp74
F1.0
s(I8
(I12
I13
I14
I15
tp75
tp76
F1.0
s(I6
(I23
I24
I25
I26
I27
I28
I29
I0
I1
I2
tp77
tp78
F1.0
s(I3
(I22
I21
I20
I19
I18
I17
I16
I15
I14
I13
I12
I11
I10
I9
I8
tp79
tp80
F1.0
s(I6
I18
tp81
F1.0
s(I9
(I22
I23
I24
tp82
tp83
F1.0
s(I8
I7
tp84
F1.0
s(I1
I18
tp85
F1.0
s(I9
I2
tp86
F1.0
s(I2
I25
tp87
F1.0
s(I3
I4
tp88
F1.0
s(I4
I7
tp89
F1.0
s(I5
I6
tp90
F1.0
s(I6
I21
tp91
F1.0
s(I7
I16
tp92
F1.0
s(I8
I14
tp93
F1.0
s(I4
(I2
I3
tp94
tp95
F1.0
s(I5
(I19
I18
I17
I16
I15
I14
tp96
tp97
F1.0
s(I9
I15
tp98
F1.0
s(I8
I20
tp99
F1.0
s(I3
(I23
I24
I25
I26
I27
I28
I29
I0
I1
I2
I3
I4
I5
I6
I7
I8
tp100
tp101
F1.0
s(I9
I17
tp102
F1.0
s(I2
I16
tp103
F1.0
s(I0
I0
tp104
F1.0
s(I3
I13
tp105
F1.0
s(I1
I13
tp106
F1.0
s(I4
I14
tp107
F1.0
s(I7
(I19
I18
I17
I16
I15
I14
I13
I12
I11
tp108
tp109
F1.0
s(I5
I15
tp110
F1.0
s(I3
I19
tp111
F1.0
s(I6
I12
tp112
F1.0
s(I4
I20
tp113
F1.0
s(I7
I9
tp114
F1.0
s(I3
(I29
I0
I1
I2
I3
I4
I5
I6
I7
I8
tp115
tp116
F1.0
s(I0
(I2
I1
I0
I29
I28
I27
I26
I25
I24
I23
I22
I21
I20
I19
tp117
tp118
F1.0
s(I6
I23
tp119
F1.0
s(I8
I27
tp120
F1.0
s(I9
I26
tp121
F1.0
s(I1
I6
tp122
F1.0
s(I5
I8
tp123
F1.0
s(I3
I24
tp124
F1.0
s(I6
I7
tp125
F1.0
s(I4
I19
tp126
F1.0
s(I7
I6
tp127
F1.0
s(I5
I18
tp128
F1.0
s(I6
I25
tp129
F1.0
s(I6
(I18
I19
I20
I21
I22
I23
I24
I25
I26
I27
I28
I29
I0
I1
I2
tp130
tp131
F1.0
s(I9
(I18
I19
I20
I21
I22
I23
I24
tp132
tp133
F1.0
s(I8
I2
tp134
F1.0
s(I2
I28
tp135
F1.0
s(I3
I1
tp136
F1.0
s(I4
I26
tp137
F1.0
s(I7
(I14
I13
I12
I11
tp138
tp139
F1.0
s(I7
I21
tp140
F1.0
s(I3
(I19
I18
I17
I16
I15
I14
I13
I12
I11
I10
I9
I8
tp141
tp142
F1.0
s(I7
(I21
I20
I19
I18
I17
I16
I15
I14
I13
I12
I11
tp143
tp144
F1.0
s(I8
I9
tp145
F1.0
s(I1
(I14
I13
I12
I11
tp146
tp147
F1.0
s(I5
I23
tp148
F1.0
s(I0
I21
tp149
F1.0
s(I1
I16
tp150
F1.0
s(I1
(I2
I3
I4
I5
I6
I7
I8
I9
I10
I11
tp151
tp152
F1.0
s(I2
I23
tp153
F1.0
s(I3
I6
tp154
F1.0
s(I1
I10
tp155
F1.0
s(I4
I1
tp156
F1.0
s(I4
(I22
I23
I24
I25
I26
I27
I28
I29
I0
I1
I2
I3
tp157
tp158
F1.0
s(I1
(I22
I21
I20
I19
I18
I17
I16
I15
I14
I13
I12
I11
tp159
tp160
F1.0
s(I8
(I29
I28
I27
I26
I25
I24
I23
I22
I21
I20
I19
I18
I17
I16
I15
tp161
tp162
F1.0
s(I7
I18
tp163
F1.0
s(I0
(I29
I28
I27
I26
I25
I24
I23
I22
I21
I20
I19
tp164
tp165
F1.0
s(I2
(I21
I20
I19
I18
tp166
tp167
F1.0
s(I0
(I15
I16
I17
I18
I19
tp168
tp169
F1.0
s(I9
I13
tp170
F1.0
s(I4
(I15
I14
I13
I12
I11
I10
I9
I8
I7
I6
I5
I4
I3
tp171
tp172
F1.0
s(I8
I22
tp173
F1.0
s(I9
I23
tp174
F1.0
s(I5
(I22
I21
I20
I19
I18
I17
I16
I15
I14
tp175
tp176
F1.0
s(I2
(I29
I28
I27
I26
I25
I24
I23
I22
I21
I20
I19
I18
tp177
tp178
F1.0
s(I0
I2
tp179
F1.0
s(I3
I15
tp180
F1.0
s(I4
(I14
I13
I12
I11
I10
I9
I8
I7
I6
I5
I4
I3
tp181
tp182
F1.0
s(I1
I3
tp183
F1.0
s(I4
I8
tp184
F1.0
s(I5
I13
tp185
F1.0
s(I3
I21
tp186
F1.0
s(I4
I22
tp187
F1.0
s(I5
(I21
I20
I19
I18
I17
I16
I15
I14
tp188
tp189
F1.0
s(I1
(I19
I18
I17
I16
I15
I14
I13
I12
I11
tp190
tp191
F1.0
s(I8
I29
tp192
F1.0
s(I4
(I29
I0
I1
I2
I3
tp193
tp194
F1.0
s(I0
I25
tp195
F1.0
s(I6
(I15
I14
I13
I12
I11
I10
I9
I8
I7
I6
I5
I4
I3
I2
tp196
tp197
F1.0
s(I1
(I29
I0
I1
I2
I3
I4
I5
I6
I7
I8
I9
I10
I11
tp198
tp199
F1.0
s(I1
I4
tp200
F1.0
s(I9
(I12
I13
I14
I15
I16
I17
I18
I19
I20
I21
I22
I23
I24
tp201
tp202
F1.0
s(I2
(I2
I1
I0
I29
I28
I27
I26
I25
I24
I23
I22
I21
I20
I19
I18
tp203
tp204
F1.0
s(I3
I26
tp205
F1.0
s(I6
I5
tp206
F1.0
s(I4
I29
tp207
F1.0
s(I7
I0
tp208
F1.0
s(I5
I16
tp209
F1.0
s(I8
I4
tp210
F1.0
s(I9
I1
tp211
F1.0
s(I9
(I21
I22
I23
I24
tp212
tp213
F1.0
s(I0
I16
tp214
F1.0
s(I3
(I2
I3
I4
I5
I6
I7
I8
tp215
tp216
F1.0
s(I1
I29
tp217
F1.0
s(I2
I26
tp218
F1.0
s(I3
I3
tp219
F1.0
s(I4
I4
tp220
F1.0
s(I1
(I18
I17
I16
I15
I14
I13
I12
I11
tp221
tp222
F1.0
s(I6
I22
tp223
F1.0
s(I7
I23
tp224
F1.0
s(I8
I11
tp225
F1.0
s(I7
(I15
I14
I13
I12
I11
tp226
tp227
F1.0
s(I5
I4
tp228
F1.0
s(I0
I23
tp229
F1.0
s(I1
(I15
I14
I13
I12
I11
tp230
tp231
F1.0
s(I1
I22
tp232
F1.0
s(I2
I21
tp233
F1.0
s(I0
I13
tp234
F1.0
s(I1
I8
tp235
F1.0
s(I2
I15
tp236
F1.0
s(I5
I2
tp237
F1.0
s(I6
I9
tp238
F1.0
s(I7
I12
tp239
F1.0
s(I8
I24
tp240
F1.0
s(I9
I21
tp241
F1.0
s(I0
I20
tp242
F1.0
s(I1
I1
tp243
F1.0
s(I4
I10
tp244
F1.0
s(I5
I11
tp245
F1.0
s(I3
I23
tp246
F1.0
s(I6
I0
tp247
F1.0
s(I4
I16
tp248
F1.0
s(I7
I5
tp249
F1.0
s(I5
(I15
I14
tp250
tp251
F1.0
s(I5
I21
tp252
F1.0
s(I0
(I12
I13
I14
I15
I16
I17
I18
I19
tp253
tp254
F1.0
s(I6
I26
tp255
F1.0
s(I7
(I29
I0
I1
I2
I3
I4
I5
I6
I7
I8
I9
I10
I11
tp256
tp257
F1.0
s(I9
(I23
I24
tp258
tp259
F1.0
s(I8
(I14
I15
tp260
tp261
F1.0
s(I6
(I14
I13
I12
I11
I10
I9
I8
I7
I6
I5
I4
I3
I2
tp262
tp263
F1.0
s(I0
I27
tp264
F1.0
s(I2
I1
tp265
F1.0
s(I3
I28
tp266
F1.0
s(I2
(I19
I18
tp267
tp268
F1.0
s(I7
I2
tp269
F1.0
s(I6
I29
tp270
F1.0
s(I8
I6
tp271
F1.0
s(I0
(I19
tp272
tp273
F1.0
s(I0
I18
tp274
F1.0
s(I1
I19
tp275
F1.0
s(I2
I24
tp276
F1.0
s(I3
I5
tp277
F1.0
s(I4
I6
tp278
F1.0
s(I5
I7
tp279
F1.0
s(I4
(I21
I22
I23
I24
I25
I26
I27
I28
I29
I0
I1
I2
I3
tp280
tp281
F1.0
s(I6
I20
tp282
F1.0
s(I7
I17
tp283
F1.0
s(I8
I13
tp284
F1.0
s(I8
I19
tp285
F1.0
s(I9
I18
tp286
F1.0
s(I1
I20
tp287
F1.0
s(I1
(I12
I11
tp288
tp289
F1.0
s(I0
I15
tp290
F1.0
s(I3
I10
tp291
F1.0
s(I1
I14
tp292
F1.0
s(I6
(I19
I20
I21
I22
I23
I24
I25
I26
I27
I28
I29
I0
I1
I2
tp293
tp294
F1.0
s(I4
I13
tp295
F1.0
s(I2
I13
tp296
F1.0
s(I5
I0
tp297
F1.0
s(I3
I16
tp298
F1.0
s(I6
I15
tp299
F1.0
s(I7
I14
tp300
F1.0
s(I5
(I12
I13
I14
tp301
tp302
F1.0
s(I2
(I18
tp303
tp304
F1.0
s(I8
I26
tp305
F1.0
s(I9
I27
tp306
F1.0
s(I1
I7
tp307
F1.0
s(I3
(I14
I13
I12
I11
I10
I9
I8
tp308
tp309
F1.0
s(I3
(I18
I17
I16
I15
I14
I13
I12
I11
I10
I9
I8
tp310
tp311
F1.0
s(I5
I9
tp312
F1.0
s(I3
I25
tp313
F1.0
s(I6
I6
tp314
F1.0
s(I4
I18
tp315
F1.0
s(I7
I7
tp316
F1.0
s(I5
I19
tp317
F1.0
s(I0
(I21
I20
I19
tp318
tp319
F1.0
s(I6
I24
tp320
F1.0
s(I7
(I12
I11
tp321
tp322
F1.0
s(I7
I29
tp323
F1.0
s(I9
I28
tp324
F1.0
s(I0
I29
tp325
F1.0
s(I8
(I21
I20
I19
I18
I17
I16
I15
tp326
tp327
F1.0
s(I4
I25
tp328
F1.0
s(I4
I9
tp329
F1.0
s(I6
I19
tp330
F1.0
s(I8
I8
tp331
F1.0
s(I0
(I23
I22
I21
I20
I19
tp332
tp333
F1.0
s(I0
(I18
I19
tp334
tp335
F1.0
s(I9
(I19
I20
I21
I22
I23
I24
tp336
tp337
F1.0
s(I1
I17
tp338
F1.0
s(I7
(I18
I17
I16
I15
I14
I13
I12
I11
tp339
tp340
F1.0
s(I2
I22
tp341
F1.0
s(I4
(I12
I11
I10
I9
I8
I7
I6
I5
I4
I3
tp342
tp343
F1.0
s(I3
I7
tp344
F1.0
s(I4
I0
tp345
F1.0
s(I5
I5
tp346
F1.0
s(I6
I10
tp347
F1.0
s(I7
I19
tp348
F1.0
s(I0
I1
tp349
F1.0
s(I9
I14
tp350
F1.0
s(I8
I21
tp351
F1.0
s(I9
I16
tp352
F1.0
s(I2
I17
tp353
F1.0
s(I4
(I23
I24
I25
I26
I27
I28
I29
I0
I1
I2
I3
tp354
tp355
F1.0
s(I3
I12
tp356
F1.0
s(I1
I12
tp357
F1.0
s(I9
I29
tp358
F1.0
s(I4
I15
tp359
F1.0
s(I3
I18
tp360
F1.0
s(I6
I13
tp361
F1.0
s(I4
I21
tp362
F1.0
s(I7
I8
tp363
F1.0
s(I8
I28
tp364
F1.0
s(I9
I25
tp365
F1.0
s(I8
(I18
I17
I16
I15
tp366
tp367
F1.0
s(I1
(I21
I20
I19
I18
I17
I16
I15
I14
I13
I12
I11
tp368
tp369
F1.0
s(I0
I24
tp370
F1.0
s(I1
I5
tp371
F1.0
s(I4
(I18
I17
I16
I15
I14
I13
I12
I11
I10
I9
I8
I7
I6
I5
I4
I3
tp372
tp373
F1.0
s(I2
I2
tp374
F1.0
s(I5
(I18
I17
I16
I15
I14
tp375
tp376
F1.0
s(I3
I27
tp377
F1.0
s(I6
(I21
I22
I23
I24
I25
I26
I27
I28
I29
I0
I1
I2
tp378
tp379
F1.0
s(I6
I4
tp380
F1.0
s(I4
I28
tp381
F1.0
s(I7
I1
tp382
F1.0
s(I5
I17
tp383
F1.0
s(I2
I19
tp384
F1.0
s(I8
I3
tp385
F1.0
s(I2
(I14
I15
I16
I17
I18
tp386
tp387
F1.0
s(I5
(I29
I0
I1
I2
I3
I4
I5
I6
I7
I8
I9
I10
I11
I12
I13
I14
tp388
tp389
F1.0
s(I5
(I14
tp390
tp391
F1.0
s(I2
I29
tp392
F1.0
s(I3
I0
tp393
F1.0
s(I4
I27
tp394
F1.0
s(I8
I17
tp395
F1.0
s(I7
I20
tp396
F1.0
s(I5
(I2
I3
I4
I5
I6
I7
I8
I9
I10
I11
I12
I13
I14
tp397
tp398
F1.0
s(I8
I10
tp399
F1.0
s(I9
(I14
I15
I16
I17
I18
I19
I20
I21
I22
I23
I24
tp400
tp401
F1.0
s(I8
I16
tp402
F1.0
s(I0
I22
tp403
F1.0
s(I1
I23
tp404
F1.0
s(I3
(I15
I14
I13
I12
I11
I10
I9
I8
tp405
tp406
F1.0
s(I2
I20
tp407
F1.0
s(I0
I12
tp408
F1.0
s(I3
I9
tp409
F1.0
s(I1
I9
tp410
F1.0
s(I4
I2
tp411
F1.0
s(I6
(I12
I11
I10
I9
I8
I7
I6
I5
I4
I3
I2
tp412
tp413
F1.0
s(I5
I3
tp414
F1.0
s(I5
(I23
I22
I21
I20
I19
I18
I17
I16
I15
I14
tp415
tp416
F1.0
s(I6
I8
tp417
F1.0
s(I7
I13
tp418
F1.0
s(I9
I12
tp419
F1.0
s(I8
I23
tp420
F1.0
s(I9
I22
tp421
F1.0
s(I8
(I2
I3
I4
I5
I6
I7
I8
I9
I10
I11
I12
I13
I14
I15
tp422
tp423
F1.0
s(I3
I14
tp424
F1.0
s(I1
I2
tp425
F1.0
s(I7
(I23
I22
I21
I20
I19
I18
I17
I16
I15
I14
I13
I12
I11
tp426
tp427
F1.0
s(I8
(I19
I18
I17
I16
I15
tp428
tp429
F1.0
s(I5
I12
tp430
F1.0
s(I3
I20
tp431
F1.0
s(I6
I3
tp432
F1.0
s(I4
I23
tp433
F1.0
s(I7
I10
tp434
F1.0
s(I0
(I14
I15
I16
I17
I18
I19
tp435
tp436
F1.0
s(I5
I22
tp437
F1.0
s(I9
(I29
I28
I27
I26
I25
I24
tp438
tp439
F1.0
s(I6
(I29
I0
I1
I2
tp440
tp441
F1.0
s(I0
I26
tp442
F1.0
s(I2
I14
tp443
F1.0
s(I2
I0
tp444
F1.0
s(I3
I29
tp445
F1.0
s(I2
(I12
I13
I14
I15
I16
I17
I18
tp446
tp447
F1.0
ssS'log_margin'
p448
F0.1
sS'demands'
p449
(lp450
(dp451
S'query_source'
p452
I2
sS'item'
p453
I7
sS'rate'
p454
F1.0
sS'item_source'
p455
I11
sS'path'
p456
(lp457
I2
aI3
aI4
aI5
aI6
aI7
aI8
aI9
aI10
aI11
asa(dp458
g452
I2
sg453
I6
sg454
F1.0
sg455
I2
sg456
(lp459
I2
asa(dp460
g452
I2
sg453
I2
sg454
F1.0
sg455
I18
sg456
(lp461
I2
aI1
aI0
aI29
aI28
aI27
aI26
aI25
aI24
aI23
aI22
aI21
aI20
aI19
aI18
asa(dp462
g452
I2
sg453
I0
sg454
F1.0
sg455
I19
sg456
(lp463
I2
aI1
aI0
aI29
aI28
aI27
aI26
aI25
aI24
aI23
aI22
aI21
aI20
aI19
asa(dp464
g452
I2
sg453
I8
sg454
F1.0
sg455
I15
sg456
(lp465
I2
aI3
aI4
aI5
aI6
aI7
aI8
aI9
aI10
aI11
aI12
aI13
aI14
aI15
asa(dp466
g452
I2
sg453
I4
sg454
F1.0
sg455
I3
sg456
(lp467
I2
aI3
asa(dp468
g452
I2
sg453
I9
sg454
F1.0
sg455
I24
sg456
(lp469
I2
aI1
aI0
aI29
aI28
aI27
aI26
aI25
aI24
asa(dp470
g452
I2
sg453
I3
sg454
F1.0
sg455
I8
sg456
(lp471
I2
aI3
aI4
aI5
aI6
aI7
aI8
asa(dp472
g452
I2
sg453
I5
sg454
F1.0
sg455
I14
sg456
(lp473
I2
aI3
aI4
aI5
aI6
aI7
aI8
aI9
aI10
aI11
aI12
aI13
aI14
asa(dp474
g452
I2
sg453
I1
sg454
F1.0
sg455
I11
sg456
(lp475
I2
aI3
aI4
aI5
aI6
aI7
aI8
aI9
aI10
aI11
asa(dp476
g452
I15
sg453
I1
sg454
F1.0
sg455
I11
sg456
(lp477
I15
aI14
aI13
aI12
aI11
asa(dp478
g452
I15
sg453
I5
sg454
F1.0
sg455
I14
sg456
(lp479
I15
aI14
asa(dp480
g452
I15
sg453
I9
sg454
F1.0
sg455
I24
sg456
(lp481
I15
aI16
aI17
aI18
aI19
aI20
aI21
aI22
aI23
aI24
asa(dp482
g452
I15
sg453
I3
sg454
F1.0
sg455
I8
sg456
(lp483
I15
aI14
aI13
aI12
aI11
aI10
aI9
aI8
asa(dp484
g452
I15
sg453
I7
sg454
F1.0
sg455
I11
sg456
(lp485
I15
aI14
aI13
aI12
aI11
asa(dp486
g452
I15
sg453
I0
sg454
F1.0
sg455
I19
sg456
(lp487
I15
aI16
aI17
aI18
aI19
asa(dp488
g452
I15
sg453
I2
sg454
F1.0
sg455
I18
sg456
(lp489
I15
aI16
aI17
aI18
asa(dp490
g452
I15
sg453
I4
sg454
F1.0
sg455
I3
sg456
(lp491
I15
aI14
aI13
aI12
aI11
aI10
aI9
aI8
aI7
aI6
aI5
aI4
aI3
asa(dp492
g452
I15
sg453
I6
sg454
F1.0
sg455
I2
sg456
(lp493
I15
aI14
aI13
aI12
aI11
aI10
aI9
aI8
aI7
aI6
aI5
aI4
aI3
aI2
asa(dp494
g452
I15
sg453
I8
sg454
F1.0
sg455
I15
sg456
(lp495
I15
asa(dp496
g452
I29
sg453
I9
sg454
F1.0
sg455
I24
sg456
(lp497
I29
aI28
aI27
aI26
aI25
aI24
asa(dp498
g452
I29
sg453
I6
sg454
F1.0
sg455
I2
sg456
(lp499
I29
aI0
aI1
aI2
asa(dp500
g452
I29
sg453
I5
sg454
F1.0
sg455
I14
sg456
(lp501
I29
aI0
aI1
aI2
aI3
aI4
aI5
aI6
aI7
aI8
aI9
aI10
aI11
aI12
aI13
aI14
asa(dp502
g452
I29
sg453
I7
sg454
F1.0
sg455
I11
sg456
(lp503
I29
aI0
aI1
aI2
aI3
aI4
aI5
aI6
aI7
aI8
aI9
aI10
aI11
asa(dp504
g452
I29
sg453
I4
sg454
F1.0
sg455
I3
sg456
(lp505
I29
aI0
aI1
aI2
aI3
asa(dp506
g452
I29
sg453
I1
sg454
F1.0
sg455
I11
sg456
(lp507
I29
aI0
aI1
aI2
aI3
aI4
aI5
aI6
aI7
aI8
aI9
aI10
aI11
asa(dp508
g452
I29
sg453
I3
sg454
F1.0
sg455
I8
sg456
(lp509
I29
aI0
aI1
aI2
aI3
aI4
aI5
aI6
aI7
aI8
asa(dp510
g452
I29
sg453
I8
sg454
F1.0
sg455
I15
sg456
(lp511
I29
aI28
aI27
aI26
aI25
aI24
aI23
aI22
aI21
aI20
aI19
aI18
aI17
aI16
aI15
asa(dp512
g452
I29
sg453
I0
sg454
F1.0
sg455
I19
sg456
(lp513
I29
aI28
aI27
aI26
aI25
aI24
aI23
aI22
aI21
aI20
aI19
asa(dp514
g452
I29
sg453
I2
sg454
F1.0
sg455
I18
sg456
(lp515
I29
aI28
aI27
aI26
aI25
aI24
aI23
aI22
aI21
aI20
aI19
aI18
asa(dp516
g452
I23
sg453
I6
sg454
F1.0
sg455
I2
sg456
(lp517
I23
aI24
aI25
aI26
aI27
aI28
aI29
aI0
aI1
aI2
asa(dp518
g452
I23
sg453
I7
sg454
F1.0
sg455
I11
sg456
(lp519
I23
aI22
aI21
aI20
aI19
aI18
aI17
aI16
aI15
aI14
aI13
aI12
aI11
asa(dp520
g452
I23
sg453
I9
sg454
F1.0
sg455
I24
sg456
(lp521
I23
aI24
asa(dp522
g452
I23
sg453
I1
sg454
F1.0
sg455
I11
sg456
(lp523
I23
aI22
aI21
aI20
aI19
aI18
aI17
aI16
aI15
aI14
aI13
aI12
aI11
asa(dp524
g452
I23
sg453
I8
sg454
F1.0
sg455
I15
sg456
(lp525
I23
aI22
aI21
aI20
aI19
aI18
aI17
aI16
aI15
asa(dp526
g452
I23
sg453
I2
sg454
F1.0
sg455
I18
sg456
(lp527
I23
aI22
aI21
aI20
aI19
aI18
asa(dp528
g452
I23
sg453
I0
sg454
F1.0
sg455
I19
sg456
(lp529
I23
aI22
aI21
aI20
aI19
asa(dp530
g452
I23
sg453
I4
sg454
F1.0
sg455
I3
sg456
(lp531
I23
aI24
aI25
aI26
aI27
aI28
aI29
aI0
aI1
aI2
aI3
asa(dp532
g452
I23
sg453
I3
sg454
F1.0
sg455
I8
sg456
(lp533
I23
aI24
aI25
aI26
aI27
aI28
aI29
aI0
aI1
aI2
aI3
aI4
aI5
aI6
aI7
aI8
asa(dp534
g452
I23
sg453
I5
sg454
F1.0
sg455
I14
sg456
(lp535
I23
aI22
aI21
aI20
aI19
aI18
aI17
aI16
aI15
aI14
asa(dp536
g452
I22
sg453
I1
sg454
F1.0
sg455
I11
sg456
(lp537
I22
aI21
aI20
aI19
aI18
aI17
aI16
aI15
aI14
aI13
aI12
aI11
asa(dp538
g452
I22
sg453
I2
sg454
F1.0
sg455
I18
sg456
(lp539
I22
aI21
aI20
aI19
aI18
asa(dp540
g452
I22
sg453
I9
sg454
F1.0
sg455
I24
sg456
(lp541
I22
aI23
aI24
asa(dp542
g452
I22
sg453
I4
sg454
F1.0
sg455
I3
sg456
(lp543
I22
aI23
aI24
aI25
aI26
aI27
aI28
aI29
aI0
aI1
aI2
aI3
asa(dp544
g452
I22
sg453
I6
sg454
F1.0
sg455
I2
sg456
(lp545
I22
aI23
aI24
aI25
aI26
aI27
aI28
aI29
aI0
aI1
aI2
asa(dp546
g452
I22
sg453
I5
sg454
F1.0
sg455
I14
sg456
(lp547
I22
aI21
aI20
aI19
aI18
aI17
aI16
aI15
aI14
asa(dp548
g452
I22
sg453
I7
sg454
F1.0
sg455
I11
sg456
(lp549
I22
aI21
aI20
aI19
aI18
aI17
aI16
aI15
aI14
aI13
aI12
aI11
asa(dp550
g452
I22
sg453
I8
sg454
F1.0
sg455
I15
sg456
(lp551
I22
aI21
aI20
aI19
aI18
aI17
aI16
aI15
asa(dp552
g452
I22
sg453
I0
sg454
F1.0
sg455
I19
sg456
(lp553
I22
aI21
aI20
aI19
asa(dp554
g452
I22
sg453
I3
sg454
F1.0
sg455
I8
sg456
(lp555
I22
aI21
aI20
aI19
aI18
aI17
aI16
aI15
aI14
aI13
aI12
aI11
aI10
aI9
aI8
asa(dp556
g452
I19
sg453
I9
sg454
F1.0
sg455
I24
sg456
(lp557
I19
aI20
aI21
aI22
aI23
aI24
asa(dp558
g452
I19
sg453
I4
sg454
F1.0
sg455
I3
sg456
(lp559
I19
aI20
aI21
aI22
aI23
aI24
aI25
aI26
aI27
aI28
aI29
aI0
aI1
aI2
aI3
asa(dp560
g452
I19
sg453
I2
sg454
F1.0
sg455
I18
sg456
(lp561
I19
aI18
asa(dp562
g452
I19
sg453
I0
sg454
F1.0
sg455
I19
sg456
(lp563
I19
asa(dp564
g452
I19
sg453
I3
sg454
F1.0
sg455
I8
sg456
(lp565
I19
aI18
aI17
aI16
aI15
aI14
aI13
aI12
aI11
aI10
aI9
aI8
asa(dp566
g452
I19
sg453
I5
sg454
F1.0
sg455
I14
sg456
(lp567
I19
aI18
aI17
aI16
aI15
aI14
asa(dp568
g452
I19
sg453
I1
sg454
F1.0
sg455
I11
sg456
(lp569
I19
aI18
aI17
aI16
aI15
aI14
aI13
aI12
aI11
asa(dp570
g452
I19
sg453
I7
sg454
F1.0
sg455
I11
sg456
(lp571
I19
aI18
aI17
aI16
aI15
aI14
aI13
aI12
aI11
asa(dp572
g452
I19
sg453
I6
sg454
F1.0
sg455
I2
sg456
(lp573
I19
aI20
aI21
aI22
aI23
aI24
aI25
aI26
aI27
aI28
aI29
aI0
aI1
aI2
asa(dp574
g452
I19
sg453
I8
sg454
F1.0
sg455
I15
sg456
(lp575
I19
aI18
aI17
aI16
aI15
asa(dp576
g452
I12
sg453
I9
sg454
F1.0
sg455
I24
sg456
(lp577
I12
aI13
aI14
aI15
aI16
aI17
aI18
aI19
aI20
aI21
aI22
aI23
aI24
asa(dp578
g452
I12
sg453
I3
sg454
F1.0
sg455
I8
sg456
(lp579
I12
aI11
aI10
aI9
aI8
asa(dp580
g452
I12
sg453
I0
sg454
F1.0
sg455
I19
sg456
(lp581
I12
aI13
aI14
aI15
aI16
aI17
aI18
aI19
asa(dp582
g452
I12
sg453
I1
sg454
F1.0
sg455
I11
sg456
(lp583
I12
aI11
asa(dp584
g452
I12
sg453
I6
sg454
F1.0
sg455
I2
sg456
(lp585
I12
aI11
aI10
aI9
aI8
aI7
aI6
aI5
aI4
aI3
aI2
asa(dp586
g452
I12
sg453
I4
sg454
F1.0
sg455
I3
sg456
(lp587
I12
aI11
aI10
aI9
aI8
aI7
aI6
aI5
aI4
aI3
asa(dp588
g452
I12
sg453
I2
sg454
F1.0
sg455
I18
sg456
(lp589
I12
aI13
aI14
aI15
aI16
aI17
aI18
asa(dp590
g452
I12
sg453
I7
sg454
F1.0
sg455
I11
sg456
(lp591
I12
aI11
asa(dp592
g452
I12
sg453
I8
sg454
F1.0
sg455
I15
sg456
(lp593
I12
aI13
aI14
aI15
asa(dp594
g452
I12
sg453
I5
sg454
F1.0
sg455
I14
sg456
(lp595
I12
aI13
aI14
asa(dp596
g452
I18
sg453
I9
sg454
F1.0
sg455
I24
sg456
(lp597
I18
aI19
aI20
aI21
aI22
aI23
aI24
asa(dp598
g452
I18
sg453
I8
sg454
F1.0
sg455
I15
sg456
(lp599
I18
aI17
aI16
aI15
asa(dp600
g452
I18
sg453
I1
sg454
F1.0
sg455
I11
sg456
(lp601
I18
aI17
aI16
aI15
aI14
aI13
aI12
aI11
asa(dp602
g452
I18
sg453
I5
sg454
F1.0
sg455
I14
sg456
(lp603
I18
aI17
aI16
aI15
aI14
asa(dp604
g452
I18
sg453
I3
sg454
F1.0
sg455
I8
sg456
(lp605
I18
aI17
aI16
aI15
aI14
aI13
aI12
aI11
aI10
aI9
aI8
asa(dp606
g452
I18
sg453
I4
sg454
F1.0
sg455
I3
sg456
(lp607
I18
aI17
aI16
aI15
aI14
aI13
aI12
aI11
aI10
aI9
aI8
aI7
aI6
aI5
aI4
aI3
asa(dp608
g452
I18
sg453
I7
sg454
F1.0
sg455
I11
sg456
(lp609
I18
aI17
aI16
aI15
aI14
aI13
aI12
aI11
asa(dp610
g452
I18
sg453
I2
sg454
F1.0
sg455
I18
sg456
(lp611
I18
asa(dp612
g452
I18
sg453
I0
sg454
F1.0
sg455
I19
sg456
(lp613
I18
aI19
asa(dp614
g452
I18
sg453
I6
sg454
F1.0
sg455
I2
sg456
(lp615
I18
aI19
aI20
aI21
aI22
aI23
aI24
aI25
aI26
aI27
aI28
aI29
aI0
aI1
aI2
asa(dp616
g452
I14
sg453
I5
sg454
F1.0
sg455
I14
sg456
(lp617
I14
asa(dp618
g452
I14
sg453
I7
sg454
F1.0
sg455
I11
sg456
(lp619
I14
aI13
aI12
aI11
asa(dp620
g452
I14
sg453
I0
sg454
F1.0
sg455
I19
sg456
(lp621
I14
aI15
aI16
aI17
aI18
aI19
asa(dp622
g452
I14
sg453
I8
sg454
F1.0
sg455
I15
sg456
(lp623
I14
aI15
asa(dp624
g452
I14
sg453
I3
sg454
F1.0
sg455
I8
sg456
(lp625
I14
aI13
aI12
aI11
aI10
aI9
aI8
asa(dp626
g452
I14
sg453
I2
sg454
F1.0
sg455
I18
sg456
(lp627
I14
aI15
aI16
aI17
aI18
asa(dp628
g452
I14
sg453
I4
sg454
F1.0
sg455
I3
sg456
(lp629
I14
aI13
aI12
aI11
aI10
aI9
aI8
aI7
aI6
aI5
aI4
aI3
asa(dp630
g452
I14
sg453
I1
sg454
F1.0
sg455
I11
sg456
(lp631
I14
aI13
aI12
aI11
asa(dp632
g452
I14
sg453
I6
sg454
F1.0
sg455
I2
sg456
(lp633
I14
aI13
aI12
aI11
aI10
aI9
aI8
aI7
aI6
aI5
aI4
aI3
aI2
asa(dp634
g452
I14
sg453
I9
sg454
F1.0
sg455
I24
sg456
(lp635
I14
aI15
aI16
aI17
aI18
aI19
aI20
aI21
aI22
aI23
aI24
asa(dp636
g452
I21
sg453
I6
sg454
F1.0
sg455
I2
sg456
(lp637
I21
aI22
aI23
aI24
aI25
aI26
aI27
aI28
aI29
aI0
aI1
aI2
asa(dp638
g452
I21
sg453
I0
sg454
F1.0
sg455
I19
sg456
(lp639
I21
aI20
aI19
asa(dp640
g452
I21
sg453
I8
sg454
F1.0
sg455
I15
sg456
(lp641
I21
aI20
aI19
aI18
aI17
aI16
aI15
asa(dp642
g452
I21
sg453
I5
sg454
F1.0
sg455
I14
sg456
(lp643
I21
aI20
aI19
aI18
aI17
aI16
aI15
aI14
asa(dp644
g452
I21
sg453
I2
sg454
F1.0
sg455
I18
sg456
(lp645
I21
aI20
aI19
aI18
asa(dp646
g452
I21
sg453
I3
sg454
F1.0
sg455
I8
sg456
(lp647
I21
aI20
aI19
aI18
aI17
aI16
aI15
aI14
aI13
aI12
aI11
aI10
aI9
aI8
asa(dp648
g452
I21
sg453
I1
sg454
F1.0
sg455
I11
sg456
(lp649
I21
aI20
aI19
aI18
aI17
aI16
aI15
aI14
aI13
aI12
aI11
asa(dp650
g452
I21
sg453
I7
sg454
F1.0
sg455
I11
sg456
(lp651
I21
aI20
aI19
aI18
aI17
aI16
aI15
aI14
aI13
aI12
aI11
asa(dp652
g452
I21
sg453
I4
sg454
F1.0
sg455
I3
sg456
(lp653
I21
aI22
aI23
aI24
aI25
aI26
aI27
aI28
aI29
aI0
aI1
aI2
aI3
asa(dp654
g452
I21
sg453
I9
sg454
F1.0
sg455
I24
sg456
(lp655
I21
aI22
aI23
aI24
asasS'bandwidths'
p656
(dp657
(I29
I28
tp658
F7.0
s(I10
I11
tp659
F7.0
s(I8
I7
tp660
F7.0
s(I5
I6
tp661
F10.0
s(I23
I22
tp662
F11.0
s(I27
I26
tp663
F7.0
s(I2
I1
tp664
F3.0
s(I8
I9
tp665
F7.0
s(I18
I19
tp666
F9.0
s(I22
I23
tp667
F14.0
s(I17
I16
tp668
F26.0
s(I20
I21
tp669
F8.0
s(I15
I14
tp670
F26.0
s(I26
I25
tp671
F7.0
s(I16
I17
tp672
F9.0
s(I24
I25
tp673
F10.0
s(I13
I12
tp674
F25.0
s(I6
I7
tp675
F10.0
s(I12
I13
tp676
F8.0
s(I11
I12
tp677
F3.0
s(I7
I6
tp678
F7.0
s(I25
I26
tp679
F10.0
s(I28
I29
tp680
F10.0
s(I24
I23
tp681
F5.0
s(I0
I1
tp682
F16.0
s(I0
I29
tp683
F3.0
s(I27
I28
tp684
F10.0
s(I9
I8
tp685
F14.0
s(I22
I21
tp686
F18.0
s(I1
I2
tp687
F16.0
s(I5
I4
tp688
F7.0
s(I3
I2
tp689
F3.0
s(I28
I27
tp690
F7.0
s(I19
I18
tp691
F26.0
s(I4
I5
tp692
F10.0
s(I11
I10
tp693
F14.0
s(I18
I17
tp694
F26.0
s(I15
I16
tp695
F9.0
s(I9
I10
tp696
F7.0
s(I2
I3
tp697
F16.0
s(I14
I13
tp698
F25.0
s(I12
I11
tp699
F30.0
s(I1
I0
tp700
F3.0
s(I21
I20
tp701
F25.0
s(I23
I24
tp702
F18.0
s(I6
I5
tp703
F7.0
s(I17
I18
tp704
F9.0
s(I26
I27
tp705
F10.0
s(I21
I22
tp706
F11.0
s(I3
I4
tp707
F10.0
s(I25
I24
tp708
F7.0
s(I19
I20
tp709
F8.0
s(I13
I14
tp710
F8.0
s(I20
I19
tp711
F25.0
s(I10
I9
tp712
F14.0
s(I4
I3
tp713
F7.0
s(I16
I15
tp714
F26.0
s(I14
I15
tp715
F9.0
s(I7
I8
tp716
F10.0
s(I29
I0
tp717
F16.0
ssS'capacities'
p718
(dp719
I0
I2
sI1
I2
sI2
I2
sI3
I2
sI4
I2
sI5
I2
sI6
I2
sI7
I2
sI8
I2
sI9
I2
sI10
I2
sI11
I2
sI12
I2
sI13
I2
sI14
I2
sI15
I2
sI16
I2
sI17
I2
sI18
I2
sI19
I2
sI20
I2
sI21
I2
sI22
I2
sI23
I2
sI24
I2
sI25
I2
sI26
I2
sI27
I2
sI28
I2
sI29
I2
ssS'REM'
p720
ccopy_reg
_reconstructor
p721
(cSparseVector
SparseVector
p722
c__builtin__
dict
p723
(dp724
(I4
g181
tp725
F0.5
s(I0
g332
tp726
F0.5
s(I0
g63
tp727
F0.5
s(I0
g334
tp728
F0.5
s(I9
g336
tp729
F0.5
s(I7
g339
tp730
F0.5
s(I6
g262
tp731
F0.5
s(I4
g342
tp732
F0.5
s(I1
g67
tp733
F0.5
s(I5
g188
tp734
F0.5
s(I3
g7
tp735
F0.5
s(I1
g288
tp736
F0.5
s(I6
g10
tp737
F0.5
s(I8
g12
tp738
F0.5
s(I5
g397
tp739
F0.5
s(I6
g293
tp740
F0.5
s(I1
g190
tp741
F0.5
s(I4
g14
tp742
F0.5
s(I6
g130
tp743
F0.5
s(I9
g400
tp744
F0.5
s(I4
g193
tp745
F0.5
s(I8
g75
tp746
F0.5
s(I6
g77
tp747
F0.5
s(I9
g132
tp748
F0.5
s(I6
g196
tp749
F0.5
s(I1
g198
tp750
F0.5
s(I1
g230
tp751
F0.5
s(I7
g21
tp752
F0.5
s(I9
g201
tp753
F0.5
s(I5
g301
tp754
F0.5
s(I2
g203
tp755
F0.5
s(I5
g250
tp756
F0.5
s(I2
g303
tp757
F0.5
s(I0
g253
tp758
F0.5
s(I6
g412
tp759
F0.5
s(I4
g354
tp760
F0.5
s(I7
g256
tp761
F0.5
s(I5
g375
tp762
F0.5
s(I9
g65
tp763
F0.5
s(I9
g27
tp764
F0.5
s(I9
g258
tp765
F0.5
s(I7
g17
tp766
F0.5
s(I3
g308
tp767
F0.5
s(I7
g138
tp768
F0.5
s(I3
g310
tp769
F0.5
s(I6
g378
tp770
F0.5
s(I3
g141
tp771
F0.5
s(I9
g212
tp772
F0.5
s(I2
g267
tp773
F0.5
s(I3
g79
tp774
F0.5
s(I7
g143
tp775
F0.5
s(I5
g415
tp776
F0.5
s(I0
g318
tp777
F0.5
s(I8
g422
tp778
F0.5
s(I3
g215
tp779
F0.5
s(I7
g321
tp780
F0.5
s(I8
g260
tp781
F0.5
s(I2
g39
tp782
F0.5
s(I8
g366
tp783
F0.5
s(I1
g146
tp784
F0.5
s(I6
g42
tp785
F0.5
s(I4
g94
tp786
F0.5
s(I7
g426
tp787
F0.5
s(I1
g368
tp788
F0.5
s(I5
g96
tp789
F0.5
s(I8
g428
tp790
F0.5
s(I9
g82
tp791
F0.5
s(I2
g45
tp792
F0.5
s(I8
g47
tp793
F0.5
s(I1
g151
tp794
F0.5
s(I1
g221
tp795
F0.5
s(I4
g372
tp796
F0.5
s(I0
g435
tp797
F0.5
s(I2
g50
tp798
F0.5
s(I3
g100
tp799
F0.5
s(I0
g272
tp800
F0.5
s(I8
g326
tp801
F0.5
s(I4
g157
tp802
F0.5
s(I1
g159
tp803
F0.5
s(I8
g161
tp804
F0.5
s(I8
g71
tp805
F0.5
s(I9
g438
tp806
F0.5
s(I7
g226
tp807
F0.5
s(I3
g405
tp808
F0.5
s(I4
g280
tp809
F0.5
s(I0
g164
tp810
F0.5
s(I2
g166
tp811
F0.5
s(I0
g168
tp812
F0.5
s(I7
g108
tp813
F0.5
s(I3
g115
tp814
F0.5
s(I6
g440
tp815
F0.5
s(I4
g171
tp816
F0.5
s(I2
g386
tp817
F0.5
s(I0
g117
tp818
F0.5
s(I5
g388
tp819
F0.5
s(I5
g175
tp820
F0.5
s(I2
g177
tp821
F0.5
s(I3
g23
tp822
F0.5
s(I5
g390
tp823
F0.5
s(I2
g446
tp824
F0.5
stp825
Rp826
sS'VAR'
p827
g721
(g722
g723
(dp828
g756
F0.0
s(I7
I3
tp829
F2.0799250638767586e-13
s(I6
I9
tp830
F2.989892279322839e-13
sg757
F0.0
s(I7
I12
tp831
F5.199812659691891e-13
s(I6
I28
tp832
F5.199812659691891e-13
s(I8
I5
tp833
F1.2132896205947753e-13
sg735
F0.0
s(I9
I0
tp834
F6.933083546255856e-14
s(I8
I24
tp835
F4.549836077230406e-13
sg737
F0.0
sg738
F0.0
sg728
F0.0
sg742
F0.0
s(I2
I29
tp836
F6.499765824614868e-13
s(I2
I27
tp837
F5.979784558645676e-13
sg766
F0.0
s(I4
I10
tp838
F5.0264855710355e-13
s(I3
I2
tp839
F2.859896962830542e-13
sg796
F0.0
s(I5
I11
tp840
F6.066448102973874e-14
s(I4
I5
tp841
F1.0399625319383793e-13
s(I3
I23
tp842
F2.8165651906664417e-13
s(I6
I0
tp843
F3.639868861784326e-13
s(I4
I16
tp844
F4.809826710215e-13
sg752
F0.0
s(I7
I5
tp845
F1.559943797907569e-13
s(I6
I23
tp846
F9.316331015281309e-13
s(I5
I21
tp847
F1.3649508231691218e-12
s(I7
I22
tp848
F1.3606176459527123e-12
s(I6
I26
tp849
F6.499765824614866e-13
sg761
F0.0
sg762
F0.0
s(I8
I12
tp850
F7.799718989537844e-14
sg764
F0.0
sg765
F0.0
sg781
F0.0
s(I8
I18
tp851
F1.1699578484306758e-12
s(I1
I6
tp852
F1.2999531649229733e-13
s(I9
I19
tp853
F5.849789242153379e-13
s(I1
I21
tp854
F1.9499297473844604e-12
s(I0
I27
tp855
F4.679831393722705e-13
s(I0
I14
tp856
F1.2999531649229733e-13
s(I3
I11
tp857
F6.369770508122574e-13
s(I2
I1
tp858
F3.3365464566356315e-13
s(I1
I15
tp859
F1.5599437979075674e-12
s(I4
I12
tp860
F8.839681521476227e-13
s(I3
I28
tp861
F1.9932615195485588e-13
s(I2
I12
tp862
F7.799718989537845e-14
sg773
F0.0
s(I5
I1
tp863
F1.9499297473844592e-13
s(I3
I17
tp864
F1.9239306840859997e-12
sg782
F0.0
s(I7
I2
tp865
F2.686569874174149e-13
s(I6
I14
tp866
F7.106410634912259e-13
sg785
F0.0
s(I7
I15
tp867
F1.5599437979075674e-12
s(I6
I29
tp868
F5.45980329267649e-13
sg792
F0.0
sg793
F0.0
sg804
F0.0
s(I8
I6
tp869
F1.0832943041024781e-13
sg798
F0.0
sg800
F0.0
s(I8
I25
tp870
F4.679831393722704e-13
s(I9
I20
tp871
F5.19981265969189e-13
sg808
F0.0
s(I0
I18
tp872
F5.1998126596918964e-14
s(I1
I19
tp873
F2.079925063876756e-12
s(I2
I24
tp874
F5.199812659691891e-13
s(I1
I0
tp875
F1.9499297473844592e-13
s(I4
I11
tp876
F6.239775191630275e-13
s(I3
I5
tp877
F1.1699578484306762e-13
s(I5
I10
tp878
F8.666354432819823e-14
s(I4
I6
tp879
F1.5599437979075687e-13
s(I3
I22
tp880
F7.713055445209641e-13
s(I6
I1
tp881
F1.819934430892163e-13
s(I5
I7
tp882
F1.6466073422357672e-13
s(I4
I17
tp883
F5.45980329267649e-13
sg809
F0.0
s(I7
I4
tp884
F1.8199344308921631e-13
s(I6
I20
tp885
F5.19981265969189e-13
s(I5
I20
tp886
F1.1699578484306758e-12
s(I9
I21
tp887
F5.45980329267649e-13
s(I6
I27
tp888
F5.849789242153379e-13
s(I8
I13
tp889
F5.1998126596918964e-14
sg727
F0.0
s(I9
I29
tp890
F1.2999531649229733e-13
s(I8
I19
tp891
F1.2999531649229735e-12
s(I9
I18
tp892
F5.199812659691893e-13
sg733
F0.0
s(I1
I20
tp893
F1.754936772646014e-12
sg799
F0.0
s(I0
I17
tp894
F7.799718989537844e-14
s(I2
I19
tp895
F3.8998594947689184e-13
s(I0
I15
tp896
F1.5599437979075687e-13
s(I3
I10
tp897
F4.246513672081717e-13
s(I1
I14
tp898
F1.3649508231691218e-12
sg740
F0.0
s(I4
I13
tp899
F8.579690888491632e-13
s(I2
I13
tp900
F6.499765824614867e-14
sg805
F0.0
s(I5
I0
tp901
F2.2532521525331545e-13
s(I4
I24
tp902
F7.45306481222504e-13
s(I3
I16
tp903
F1.6639400511014068e-12
s(I6
I15
tp904
F4.2031818999176137e-13
s(I5
I29
tp905
F2.5565745576818465e-13
sg746
F0.0
sg747
F0.0
sg774
F0.0
s(I6
I18
tp906
F2.859896962830542e-13
sg754
F0.0
sg791
F0.0
s(I8
I7
tp907
F9.532989876101812e-14
s(I8
I26
tp908
F4.809826710214999e-13
s(I9
I27
tp909
F7.799718989537844e-14
s(I1
I1
tp910
F1.6466073422357672e-13
s(I1
I18
tp911
F2.2749180386152025e-12
sg817
F0.0
s(I2
I25
tp912
F5.459803292676491e-13
s(I1
I7
tp913
F1.0399625319383793e-13
s(I3
I4
tp914
F1.5599437979075687e-13
sg767
F0.0
sg769
F0.0
s(I5
I9
tp915
F1.1266260762665775e-13
s(I4
I7
tp916
F2.0799250638767586e-13
s(I3
I25
tp917
F2.3832474690254516e-13
s(I6
I6
tp918
F1.2999531649229728e-13
s(I5
I6
tp919
F1.9065979752203624e-13
s(I4
I18
tp920
F6.109779875137977e-13
s(I7
I7
tp921
F1.0399625319383793e-13
s(I6
I21
tp922
F7.409733040060954e-13
s(I5
I19
tp923
F1.2999531649229735e-12
sg777
F0.0
s(I7
I16
tp924
F1.6249414561537174e-12
s(I6
I24
tp925
F7.799718989537837e-13
sg780
F0.0
sg786
F0.0
s(I8
I14
tp926
F3.899859494768922e-14
s(I7
I29
tp927
F2.2532521525331545e-13
sg789
F0.0
s(I9
I15
tp928
F5.069817343199594e-13
sg815
F0.0
s(I9
I28
tp929
F1.0399625319383793e-13
s(I8
I20
tp930
F1.2999531649229735e-12
s(I9
I17
tp931
F4.289845444245816e-13
s(I0
I29
tp932
F5.199812659691893e-13
sg801
F0.0
s(I2
I16
tp933
F7.799718989537844e-14
s(I0
I0
tp934
F2.643238102010048e-13
s(I3
I13
tp935
F1.325952228221433e-12
s(I1
I13
tp936
F9.099672154460813e-13
s(I7
I17
tp937
F1.9499297473844604e-12
s(I4
I14
tp938
F1.0529620635876082e-12
sg806
F0.0
sg813
F0.0
s(I5
I15
tp939
F3.8998594947689184e-13
s(I4
I25
tp940
F6.933083546255859e-13
s(I3
I19
tp941
F1.832933962541393e-12
s(I6
I12
tp942
F6.759756457599464e-13
s(I4
I20
tp943
F2.9032287349946404e-13
s(I7
I9
tp944
F5.1998126596918964e-14
s(I6
I19
tp945
F5.45980329267649e-13
sg814
F0.0
sg818
F0.0
sg823
F0.0
s(I8
I8
tp946
F8.233036711178836e-14
sg822
F0.0
s(I8
I27
tp947
F4.939822026707299e-13
s(I9
I26
tp948
F5.1998126596918964e-14
sg726
F0.0
s(I0
I20
tp949
F3.249882912307434e-13
sg729
F0.0
s(I1
I17
tp950
F1.9499297473844604e-12
sg730
F0.0
s(I2
I22
tp951
F9.013008610132618e-13
sg731
F0.0
sg732
F0.0
s(I3
I7
tp952
F3.899859494768922e-14
sg758
F0.0
s(I5
I8
tp953
F1.3866167092511715e-13
s(I4
I0
tp954
F4.549836077230406e-13
s(I3
I24
tp955
F2.51324278551775e-13
s(I6
I7
tp956
F1.689939114399866e-13
s(I5
I5
tp957
F2.1665886082049563e-13
s(I4
I19
tp958
F3.033224051486938e-13
s(I7
I6
tp959
F1.2999531649229733e-13
s(I6
I10
tp960
F3.8998594947689184e-13
s(I5
I18
tp961
F1.2999531649229735e-12
s(I7
I19
tp962
F2.079925063876756e-12
s(I6
I25
tp963
F7.149742407076352e-13
sg743
F0.0
sg760
F0.0
sg748
F0.0
s(I9
I14
tp964
F3.639868861784326e-13
s(I8
I2
tp965
F1.7766026587280648e-13
sg797
F0.0
s(I8
I21
tp966
F1.5599437979075674e-12
s(I9
I16
tp967
F4.679831393722705e-13
s(I4
I9
tp968
F3.8131959504407247e-13
s(I2
I17
tp969
F3.899859494768922e-14
s(I0
I1
tp970
F2.686569874174149e-13
s(I3
I12
tp971
F1.0919606585352982e-12
s(I2
I28
tp972
F6.239775191630275e-13
s(I1
I12
tp973
F5.199812659691891e-13
sg763
F0.0
s(I4
I15
tp974
F8.319700255507034e-13
s(I3
I1
tp975
F2.51324278551775e-13
s(I4
I26
tp976
F6.413102280286672e-13
s(I3
I18
tp977
F2.183921317070596e-12
s(I6
I13
tp978
F5.806457469989281e-13
s(I4
I21
tp979
F5.546466837004685e-13
s(I7
I8
tp980
F7.799718989537844e-14
s(I4
I22
tp981
F7.409733040060954e-13
s(I7
I21
tp982
F1.9499297473844604e-12
sg771
F0.0
sg775
F0.0
s(I8
I9
tp983
F6.933083546255858e-14
s(I8
I28
tp984
F5.069817343199593e-13
s(I9
I25
tp985
F2.5999063298459482e-14
sg783
F0.0
sg784
F0.0
s(I5
I23
tp986
F5.156480887527799e-13
s(I0
I21
tp987
F6.499765824614868e-13
sg788
F0.0
s(I1
I16
tp988
F1.6249414561537174e-12
s(I0
I24
tp989
F3.8998594947689184e-13
sg794
F0.0
s(I2
I23
tp990
F7.669723673045542e-13
s(I1
I5
tp991
F1.559943797907569e-13
s(I3
I6
tp992
F7.799718989537844e-14
s(I2
I2
tp993
F3.379878228799732e-13
s(I1
I10
tp994
F2.5999063298459482e-14
s(I0
I28
tp995
F4.9398220267073e-13
s(I4
I1
tp996
F3.033224051486938e-13
s(I3
I27
tp997
F2.1232568360408584e-13
sg770
F0.0
s(I6
I4
tp998
F5.1998126596918964e-14
sg802
F0.0
s(I4
I28
tp999
F5.373139748348296e-13
sg803
F0.0
s(I6
I11
tp1000
F4.809826710215e-13
s(I5
I17
tp1001
F9.749648736922306e-13
s(I7
I18
tp1002
F2.2749180386152025e-12
sg810
F0.0
sg811
F0.0
sg812
F0.0
sg736
F0.0
s(I9
I13
tp1003
F1.949929747384459e-13
s(I8
I3
tp1004
F1.4732802535793703e-13
sg816
F0.0
s(I9
I2
tp1005
F7.799718989537845e-14
s(I8
I22
tp1006
F1.2609545699752845e-12
sg819
F0.0
s(I9
I23
tp1007
F2.4265792411895497e-13
sg820
F0.0
sg821
F0.0
s(I0
I2
tp1008
F2.7299016463382455e-13
s(I3
I15
tp1009
F1.754936772646014e-12
sg725
F0.0
s(I1
I3
tp1010
F2.0799250638767586e-13
s(I4
I8
tp1011
F2.5999063298459466e-13
s(I3
I0
tp1012
F3.1198875958151375e-13
s(I5
I13
tp1013
F3.899859494768922e-14
s(I4
I27
tp1014
F5.893121014317479e-13
s(I3
I21
tp1015
F1.4819466080121908e-12
sg768
F0.0
sg734
F0.0
s(I7
I20
tp1016
F1.754936772646014e-12
sg739
F0.0
s(I8
I10
tp1017
F5.6331303813328875e-14
sg741
F0.0
s(I8
I29
tp1018
F5.19981265969189e-13
sg744
F0.0
s(I8
I16
tp1019
F3.8998594947689184e-13
sg745
F0.0
s(I0
I22
tp1020
F6.413102280286672e-13
s(I1
I23
tp1021
F7.106410634912259e-13
s(I0
I25
tp1022
F4.159850127753517e-13
sg749
F0.0
sg750
F0.0
s(I2
I20
tp1023
F6.499765824614868e-13
s(I1
I4
tp1024
F1.8199344308921631e-13
s(I0
I12
tp1025
F9.099672154460816e-14
sg753
F0.0
sg755
F0.0
s(I1
I9
tp1026
F5.1998126596918964e-14
s(I4
I2
tp1027
F1.819934430892163e-13
s(I3
I26
tp1028
F2.2532521525331545e-13
sg759
F0.0
s(I6
I5
tp1029
F9.099672154460814e-14
s(I5
I3
tp1030
F2.686569874174149e-13
s(I4
I29
tp1031
F6.066448102973876e-13
sg776
F0.0
s(I7
I0
tp1032
F1.9499297473844592e-13
s(I6
I8
tp1033
F2.0799250638767586e-13
s(I5
I16
tp1034
F6.499765824614868e-13
s(I7
I13
tp1035
F9.099672154460813e-13
s(I9
I12
tp1036
F2.0799250638767586e-13
s(I8
I4
tp1037
F1.3432849370870744e-13
s(I9
I1
tp1038
F7.366401267896849e-14
s(I8
I23
tp1039
F9.013008610132616e-13
sg772
F0.0
s(I9
I22
tp1040
F4.246513672081717e-13
s(I7
I14
tp1041
F1.3649508231691218e-12
s(I0
I16
tp1042
F1.1699578484306762e-13
sg778
F0.0
sg779
F0.0
s(I1
I29
tp1043
F2.2532521525331545e-13
s(I3
I14
tp1044
F1.7159381776983262e-12
s(I2
I26
tp1045
F5.719793925661084e-13
s(I1
I2
tp1046
F2.686569874174149e-13
sg787
F0.0
s(I3
I3
tp1047
F1.9499297473844592e-13
sg790
F0.0
s(I5
I12
tp1048
F7.799718989537844e-14
s(I4
I4
tp1049
F5.1998126596918964e-14
s(I3
I20
tp1050
F1.3519512915198924e-12
s(I6
I3
tp1051
F1.2999531649229741e-14
s(I2
I14
tp1052
F1.0399625319383793e-13
s(I4
I23
tp1053
F8.666354432819822e-13
sg795
F0.0
s(I7
I10
tp1054
F2.5999063298459482e-14
s(I6
I22
tp1055
F8.666354432819822e-13
s(I5
I22
tp1056
F9.706316964758199e-13
s(I7
I23
tp1057
F7.106410634912259e-13
s(I5
I4
tp1058
F2.4265792411895507e-13
s(I8
I11
tp1059
F4.3331772164099117e-14
sg807
F0.0
s(I7
I1
tp1060
F1.6466073422357672e-13
s(I8
I17
tp1061
F7.799718989537837e-13
s(I0
I23
tp1062
F5.719793925661084e-13
sg751
F0.0
s(I1
I22
tp1063
F1.3606176459527123e-12
s(I0
I26
tp1064
F4.4198407607381123e-13
s(I2
I21
tp1065
F9.749648736922306e-13
s(I0
I13
tp1066
F7.799718989537845e-14
s(I2
I0
tp1067
F3.2932146844715344e-13
s(I1
I8
tp1068
F7.799718989537844e-14
s(I3
I9
tp1069
F2.1232568360408584e-13
s(I3
I29
tp1070
F3.72653240611252e-13
s(I2
I15
tp1071
F1.1699578484306762e-13
s(I5
I2
tp1072
F3.2932146844715344e-13
sg824
F0.0
stp1073
Rp1074
sb.