(itopologyGenerator
Problem
p0
(dp1
S'BOX'
p2
(dp3
(I2
(I0
I8
tp4
tp5
F1.0
s(I4
I7
tp6
F1.0
s(I4
I4
tp7
F1.0
s(I3
I8
tp8
F1.0
s(I3
(I4
I3
tp9
tp10
F1.0
s(I4
(I0
I1
I2
tp11
tp12
F1.0
s(I3
I0
tp13
F1.0
s(I8
I0
tp14
F1.0
s(I7
I8
tp15
F1.0
s(I2
(I4
I3
I8
tp16
tp17
F1.0
s(I1
(I4
I5
I7
I6
I2
tp18
tp19
F1.0
s(I5
(I8
tp20
tp21
F1.0
s(I9
I4
tp22
F1.0
s(I2
I5
tp23
F1.0
s(I8
I5
tp24
F1.0
s(I0
(I8
I3
tp25
tp26
F1.0
s(I1
(I8
I0
I1
I2
tp27
tp28
F1.0
s(I4
I0
tp29
F1.0
s(I5
(I5
I8
tp30
tp31
F1.0
s(I8
(I0
I7
tp32
tp33
F1.0
s(I9
I0
tp34
F1.0
s(I9
(I0
I8
tp35
tp36
F1.0
s(I9
(I4
I3
I8
tp37
tp38
F1.0
s(I2
I0
tp39
F1.0
s(I8
(I5
I7
tp40
tp41
F1.0
s(I2
(I5
I8
tp42
tp43
F1.0
s(I2
(I8
tp44
tp45
F1.0
s(I1
(I0
I1
I2
tp46
tp47
F1.0
s(I7
(I5
tp48
tp49
F1.0
s(I6
I3
tp50
F1.0
s(I1
I5
tp51
F1.0
s(I5
(I4
I3
I8
tp52
tp53
F1.0
s(I8
I8
tp54
F1.0
s(I5
I0
tp55
F1.0
s(I0
I4
tp56
F1.0
s(I7
(I8
I5
tp57
tp58
F1.0
s(I5
I3
tp59
F1.0
s(I4
I1
tp60
F1.0
s(I1
I1
tp61
F1.0
s(I1
(I5
I7
I6
I2
tp62
tp63
F1.0
s(I5
I4
tp64
F1.0
s(I0
I0
tp65
F1.0
s(I3
(I0
I8
I3
tp66
tp67
F1.0
s(I4
I5
tp68
F1.0
s(I5
(I0
I8
tp69
tp70
F1.0
s(I7
(I0
I8
I5
tp71
tp72
F1.0
s(I6
I0
tp73
F1.0
s(I1
I4
tp74
F1.0
s(I0
(I5
I3
tp75
tp76
F1.0
s(I5
I5
tp77
F1.0
s(I6
(I5
I4
tp78
tp79
F1.0
s(I2
I3
tp80
F1.0
s(I0
I8
tp81
F1.0
s(I9
I5
tp82
F1.0
s(I8
(I4
I5
I7
tp83
tp84
F1.0
s(I1
I0
tp85
F1.0
s(I4
(I8
I0
I1
I2
tp86
tp87
F1.0
s(I6
(I4
tp88
tp89
F1.0
s(I6
(I0
I8
I3
I4
tp90
tp91
F1.0
s(I6
I5
tp92
F1.0
s(I3
I5
tp93
F1.0
s(I0
(I4
I3
tp94
tp95
F1.0
s(I9
I3
tp96
F1.0
s(I7
I0
tp97
F1.0
s(I4
I6
tp98
F1.0
s(I4
(I4
I5
I7
I6
I2
tp99
tp100
F1.0
s(I6
I8
tp101
F1.0
s(I6
(I8
I3
I4
tp102
tp103
F1.0
s(I7
(I4
I5
tp104
tp105
F1.0
s(I0
(I0
I8
I3
tp106
tp107
F1.0
s(I0
I5
tp108
F1.0
s(I8
(I8
I0
I7
tp109
tp110
F1.0
s(I7
I4
tp111
F1.0
s(I3
(I5
I3
tp112
tp113
F1.0
s(I1
I8
tp114
F1.0
s(I9
(I8
tp115
tp116
F1.0
s(I9
(I5
I8
tp117
tp118
F1.0
s(I1
I7
tp119
F1.0
s(I3
(I8
I3
tp120
tp121
F1.0
s(I1
I6
tp122
F1.0
s(I4
(I5
I7
I6
I2
tp123
tp124
F1.0
s(I4
I8
tp125
F1.0
s(I3
I4
tp126
F1.0
s(I2
I4
tp127
F1.0
s(I8
I4
tp128
F1.0
ssS'log_margin'
p129
F0.1
sS'demands'
p130
(lp131
(dp132
S'query_source'
p133
I0
sS'item'
p134
I7
sS'rate'
p135
F1.0
sS'item_source'
p136
I5
sS'path'
p137
(lp138
I0
aI8
aI5
asa(dp139
g133
I0
sg134
I1
sg135
F1.0
sg136
I2
sg137
(lp140
I0
aI1
aI2
asa(dp141
g133
I0
sg134
I4
sg135
F1.0
sg136
I2
sg137
(lp142
I0
aI1
aI2
asa(dp143
g133
I0
sg134
I0
sg135
F1.0
sg136
I3
sg137
(lp144
I0
aI8
aI3
asa(dp145
g133
I0
sg134
I6
sg135
F1.0
sg136
I4
sg137
(lp146
I0
aI8
aI3
aI4
asa(dp147
g133
I0
sg134
I3
sg135
F1.0
sg136
I3
sg137
(lp148
I0
aI8
aI3
asa(dp149
g133
I0
sg134
I5
sg135
F1.0
sg136
I8
sg137
(lp150
I0
aI8
asa(dp151
g133
I0
sg134
I8
sg135
F1.0
sg136
I7
sg137
(lp152
I0
aI7
asa(dp153
g133
I0
sg134
I2
sg135
F1.0
sg136
I8
sg137
(lp154
I0
aI8
asa(dp155
g133
I0
sg134
I9
sg135
F1.0
sg136
I8
sg137
(lp156
I0
aI8
asa(dp157
g133
I4
sg134
I2
sg135
F1.0
sg136
I8
sg137
(lp158
I4
aI3
aI8
asa(dp159
g133
I4
sg134
I3
sg135
F1.0
sg136
I3
sg137
(lp160
I4
aI3
asa(dp161
g133
I4
sg134
I5
sg135
F1.0
sg136
I8
sg137
(lp162
I4
aI3
aI8
asa(dp163
g133
I4
sg134
I8
sg135
F1.0
sg136
I7
sg137
(lp164
I4
aI5
aI7
asa(dp165
g133
I4
sg134
I7
sg135
F1.0
sg136
I5
sg137
(lp166
I4
aI5
asa(dp167
g133
I4
sg134
I9
sg135
F1.0
sg136
I8
sg137
(lp168
I4
aI3
aI8
asa(dp169
g133
I4
sg134
I0
sg135
F1.0
sg136
I3
sg137
(lp170
I4
aI3
asa(dp171
g133
I4
sg134
I1
sg135
F1.0
sg136
I2
sg137
(lp172
I4
aI5
aI7
aI6
aI2
asa(dp173
g133
I4
sg134
I4
sg135
F1.0
sg136
I2
sg137
(lp174
I4
aI5
aI7
aI6
aI2
asa(dp175
g133
I4
sg134
I6
sg135
F1.0
sg136
I4
sg137
(lp176
I4
asa(dp177
g133
I8
sg134
I2
sg135
F1.0
sg136
I8
sg137
(lp178
I8
asa(dp179
g133
I8
sg134
I8
sg135
F1.0
sg136
I7
sg137
(lp180
I8
aI0
aI7
asa(dp181
g133
I8
sg134
I1
sg135
F1.0
sg136
I2
sg137
(lp182
I8
aI0
aI1
aI2
asa(dp183
g133
I8
sg134
I7
sg135
F1.0
sg136
I5
sg137
(lp184
I8
aI5
asa(dp185
g133
I8
sg134
I5
sg135
F1.0
sg136
I8
sg137
(lp186
I8
asa(dp187
g133
I8
sg134
I4
sg135
F1.0
sg136
I2
sg137
(lp188
I8
aI0
aI1
aI2
asa(dp189
g133
I8
sg134
I9
sg135
F1.0
sg136
I8
sg137
(lp190
I8
asa(dp191
g133
I8
sg134
I3
sg135
F1.0
sg136
I3
sg137
(lp192
I8
aI3
asa(dp193
g133
I8
sg134
I6
sg135
F1.0
sg136
I4
sg137
(lp194
I8
aI3
aI4
asa(dp195
g133
I8
sg134
I0
sg135
F1.0
sg136
I3
sg137
(lp196
I8
aI3
asa(dp197
g133
I5
sg134
I6
sg135
F1.0
sg136
I4
sg137
(lp198
I5
aI4
asa(dp199
g133
I5
sg134
I0
sg135
F1.0
sg136
I3
sg137
(lp200
I5
aI3
asa(dp201
g133
I5
sg134
I7
sg135
F1.0
sg136
I5
sg137
(lp202
I5
asa(dp203
g133
I5
sg134
I9
sg135
F1.0
sg136
I8
sg137
(lp204
I5
aI8
asa(dp205
g133
I5
sg134
I1
sg135
F1.0
sg136
I2
sg137
(lp206
I5
aI7
aI6
aI2
asa(dp207
g133
I5
sg134
I4
sg135
F1.0
sg136
I2
sg137
(lp208
I5
aI7
aI6
aI2
asa(dp209
g133
I5
sg134
I5
sg135
F1.0
sg136
I8
sg137
(lp210
I5
aI8
asa(dp211
g133
I5
sg134
I2
sg135
F1.0
sg136
I8
sg137
(lp212
I5
aI8
asa(dp213
g133
I5
sg134
I3
sg135
F1.0
sg136
I3
sg137
(lp214
I5
aI3
asa(dp215
g133
I5
sg134
I8
sg135
F1.0
sg136
I7
sg137
(lp216
I5
aI7
asasS'bandwidths'
p217
(dp218
(I0
I1
tp219
F3.4
s(I1
I2
tp220
F3.4
s(I8
I3
tp221
F5.1
s(I8
I0
tp222
F2.55
s(I4
I5
tp223
F3.4
s(I3
I4
tp224
F1.7
s(I7
I6
tp225
F3.4
s(I5
I7
tp226
F5.1
s(I5
I4
tp227
F0.85
s(I0
I7
tp228
F1.7
s(I3
I8
tp229
F2.55
s(I6
I2
tp230
F3.4
s(I4
I3
tp231
F4.25
s(I0
I8
tp232
F5.95
s(I8
I5
tp233
F1.7
s(I5
I8
tp234
F2.55
s(I5
I3
tp235
F1.7
ssS'capacities'
p236
(dp237
I0
I2
sI1
I2
sI2
I2
sI3
I2
sI4
I2
sI5
I2
sI6
I2
sI7
I2
sI8
I2
ssS'REM'
p238
ccopy_reg
_reconstructor
p239
(cSparseVector
SparseVector
p240
c__builtin__
dict
p241
(dp242
(I3
g9
tp243
F0.5
s(I5
g20
tp244
F0.5
s(I2
g16
tp245
F0.5
s(I1
g18
tp246
F0.5
s(I0
g25
tp247
F0.5
s(I1
g27
tp248
F0.5
s(I5
g30
tp249
F0.5
s(I8
g32
tp250
F0.5
s(I9
g35
tp251
F0.5
s(I9
g37
tp252
F0.5
s(I3
g112
tp253
F0.5
s(I8
g40
tp254
F0.5
s(I2
g42
tp255
F0.5
s(I2
g44
tp256
F0.5
s(I7
g48
tp257
F0.5
s(I5
g52
tp258
F0.5
s(I3
g66
tp259
F0.5
s(I5
g69
tp260
F0.5
s(I7
g57
tp261
F0.5
s(I7
g104
tp262
F0.5
s(I8
g109
tp263
F0.5
s(I1
g62
tp264
F0.5
s(I8
g83
tp265
F0.5
s(I0
g75
tp266
F0.5
s(I7
g71
tp267
F0.5
s(I6
g78
tp268
F0.5
s(I4
g11
tp269
F0.5
s(I4
g86
tp270
F0.5
s(I6
g88
tp271
F0.5
s(I6
g90
tp272
F0.5
s(I0
g94
tp273
F0.5
s(I3
g120
tp274
F0.5
s(I4
g99
tp275
F0.5
s(I6
g102
tp276
F0.5
s(I0
g106
tp277
F0.5
s(I1
g46
tp278
F0.5
s(I9
g115
tp279
F0.5
s(I9
g117
tp280
F0.5
s(I4
g123
tp281
F0.5
s(I2
g4
tp282
F0.5
stp283
Rp284
sS'VAR'
p285
g239
(g240
g241
(dp286
g270
F0.002693119765703411
sg243
F0.04249999999879661
s(I4
I8
tp287
F0.05
s(I3
I0
tp288
F0.0
s(I8
I0
tp289
F0.19999999999999937
s(I1
I6
tp290
F1.0
s(I2
I5
tp291
F0.0
s(I8
I5
tp292
F0.0
sg248
F1.7523638096150762e-10
s(I4
I0
tp293
F1.0
s(I9
I0
tp294
F0.0
sg251
F0.12499999997984401
s(I5
I5
tp295
F0.0
sg255
F0.1500000000150089
sg256
F5.2135851191792426e-11
s(I7
I4
tp296
F0.0
sg259
F0.12499999999646638
s(I0
I4
tp297
F0.0
sg261
F6.921851980479232e-11
s(I1
I1
tp298
F1.0
sg264
F5.2135851191792426e-11
s(I5
I0
tp299
F0.0
s(I4
I5
tp300
F1.0
s(I9
I3
tp301
F0.7699999999999998
sg267
F0.3000000001420332
s(I6
I0
tp302
F0.0
s(I1
I4
tp303
F0.45000000000000023
sg268
F0.15000000004502645
s(I2
I3
tp304
F0.7299999999999998
sg271
F5.2135851191792426e-11
sg272
F0.12499999997984401
s(I6
I5
tp305
F0.0
s(I5
I3
tp306
F0.0
sg274
F5.2135740169489964e-11
s(I7
I0
tp307
F0.0
s(I6
I8
tp308
F1.0
sg275
F5.2135851191792426e-11
sg276
F5.2135851191792426e-11
sg263
F0.05744153615598413
sg253
F0.15000000002251312
sg278
F5.2135851191792426e-11
sg279
F5.2135851191792426e-11
sg280
F0.1500000000150089
s(I1
I7
tp309
F1.0
sg281
F5.2135851191792426e-11
sg262
F5.2135851191792426e-11
s(I7
I8
tp310
F0.0
s(I2
I4
tp311
F0.0
s(I8
I4
tp312
F0.5399999999999996
s(I4
I7
tp313
F1.0
sg252
F0.042500000006179484
sg269
F5.2135851191792426e-11
sg245
F0.04250000000746357
sg244
F5.2135851191792426e-11
sg246
F5.2135851191792426e-11
s(I9
I4
tp314
F0.0
sg247
F5.2135851191792426e-11
sg249
F0.1500000000150089
sg250
F5.2135851191792426e-11
s(I2
I0
tp315
F0.0
sg254
F5.2135851191792426e-11
s(I4
I4
tp316
F0.4300000000000002
sg257
F5.2135851191792426e-11
s(I6
I3
tp317
F0.5000000000000002
s(I1
I5
tp318
F1.0
sg258
F9.258382949184352e-11
sg266
F0.15000000002251312
s(I4
I1
tp319
F1.0
s(I5
I4
tp320
F0.5799999999999996
s(I0
I0
tp321
F0.0
s(I0
I5
tp322
F0.0
sg260
F0.12499999997984412
sg265
F5.2135851191792426e-11
s(I3
I4
tp323
F0.0
s(I1
I0
tp324
F0.8000000000000005
s(I0
I8
tp325
F0.5299999999999996
s(I3
I5
tp326
F0.0
sg273
F0.04249999999879661
s(I4
I6
tp327
F1.0
sg282
F0.12499999997984401
s(I3
I8
tp328
F0.08
sg277
F0.12499999998833577
s(I1
I8
tp329
F0.34000000000000014
s(I8
I8
tp330
F0.0
s(I9
I5
tp331
F0.0
stp332
Rp333
sb.