(itopologyGenerator
Problem
p0
(dp1
S'BOX'
p2
(dp3
(I19
(I34
I51
I9
I63
tp4
tp5
F1.0
s(I7
I3
tp6
F1.0
s(I27
I46
tp7
F1.0
s(I16
I6
tp8
F1.0
s(I23
I60
tp9
F1.0
s(I24
I5
tp10
F1.0
s(I0
(I33
I19
tp11
tp12
F1.0
s(I4
I36
tp13
F1.0
s(I19
I4
tp14
F1.0
s(I28
(I46
I21
tp15
tp16
F1.0
s(I8
(I4
I36
I15
tp17
tp18
F1.0
s(I18
(I38
I0
I52
tp19
tp20
F1.0
s(I15
(I6
I34
I8
I7
I37
tp21
tp22
F1.0
s(I12
(I4
I16
I58
tp23
tp24
F1.0
s(I17
(I38
I0
I40
tp25
tp26
F1.0
s(I6
I54
tp27
F1.0
s(I21
I6
tp28
F1.0
s(I17
I46
tp29
F1.0
s(I7
I55
tp30
F1.0
s(I23
(I36
I15
I2
I40
I51
tp31
tp32
F1.0
s(I18
I45
tp33
F1.0
s(I29
(I6
I34
I8
I7
I37
tp34
tp35
F1.0
s(I26
(I33
I3
I53
I35
tp36
tp37
F1.0
s(I2
(I33
I3
I37
I50
tp38
tp39
F1.0
s(I0
I17
tp40
F1.0
s(I12
(I15
I36
I4
I16
I58
tp41
tp42
F1.0
s(I11
(I4
I36
I15
I37
I7
I20
tp43
tp44
F1.0
s(I12
I17
tp45
F1.0
s(I24
(I45
I39
I13
I28
I17
tp46
tp47
F1.0
s(I25
I15
tp48
F1.0
s(I15
I4
tp49
F1.0
s(I18
(I46
I0
I52
tp50
tp51
F1.0
s(I9
(I17
I5
I56
tp52
tp53
F1.0
s(I24
I52
tp54
F1.0
s(I29
I17
tp55
F1.0
s(I3
I2
tp56
F1.0
s(I1
I54
tp57
F1.0
s(I16
(I4
I36
I23
tp58
tp59
F1.0
s(I15
I34
tp60
F1.0
s(I29
(I24
I3
I37
tp61
tp62
F1.0
s(I4
I5
tp63
F1.0
s(I23
I15
tp64
F1.0
s(I8
(I46
I0
I38
I8
I15
tp65
tp66
F1.0
s(I0
I45
tp67
F1.0
s(I5
I24
tp68
F1.0
s(I23
(I29
I0
I40
I51
tp69
tp70
F1.0
s(I1
I40
tp71
F1.0
s(I15
(I45
I39
I34
I8
I7
I37
tp72
tp73
F1.0
s(I12
(I36
I4
I16
I58
tp74
tp75
F1.0
s(I21
I37
tp76
F1.0
s(I4
I35
tp77
F1.0
s(I17
(I45
I51
I40
tp78
tp79
F1.0
s(I8
I38
tp80
F1.0
s(I13
(I52
I51
I45
tp81
tp82
F1.0
s(I2
(I45
I42
I9
I12
I50
tp83
tp84
F1.0
s(I17
(I15
I2
I40
tp85
tp86
F1.0
s(I9
I39
tp87
F1.0
s(I16
I38
tp88
F1.0
s(I21
I15
tp89
F1.0
s(I10
I36
tp90
F1.0
s(I19
(I45
I42
I9
I63
tp91
tp92
F1.0
s(I9
I9
tp93
F1.0
s(I16
I60
tp94
F1.0
s(I15
(I46
I0
I38
I33
I3
I37
tp95
tp96
F1.0
s(I12
(I60
I5
I35
I47
I58
tp97
tp98
F1.0
s(I10
I14
tp99
F1.0
s(I13
I51
tp100
F1.0
s(I10
I35
tp101
F1.0
s(I11
I15
tp102
F1.0
s(I1
I21
tp103
F1.0
s(I12
(I52
I32
I18
I14
I58
tp104
tp105
F1.0
s(I3
(I17
I36
I15
I2
I40
tp106
tp107
F1.0
s(I27
I6
tp108
F1.0
s(I1
I15
tp109
F1.0
s(I9
(I4
I36
I48
I5
I56
tp110
tp111
F1.0
s(I28
I1
tp112
F1.0
s(I2
I12
tp113
F1.0
s(I0
I36
tp114
F1.0
s(I24
I33
tp115
F1.0
s(I26
(I4
I22
I35
tp116
tp117
F1.0
s(I29
I4
tp118
F1.0
s(I3
I17
tp119
F1.0
s(I27
I60
tp120
F1.0
s(I1
I33
tp121
F1.0
s(I17
(I29
I0
I40
tp122
tp123
F1.0
s(I21
I46
tp124
F1.0
s(I25
(I6
I1
I39
I13
I28
tp125
tp126
F1.0
s(I2
I38
tp127
F1.0
s(I17
I6
tp128
F1.0
s(I1
I44
tp129
F1.0
s(I22
I45
tp130
F1.0
s(I20
I21
tp131
F1.0
s(I8
I5
tp132
F1.0
s(I25
(I29
I0
I38
I33
I7
I28
tp133
tp134
F1.0
s(I8
(I15
tp135
tp136
F1.0
s(I23
I40
tp137
F1.0
s(I12
(I17
I22
I58
tp138
tp139
F1.0
s(I10
I47
tp140
F1.0
s(I21
(I6
I10
I14
tp141
tp142
F1.0
s(I17
I24
tp143
F1.0
s(I22
I44
tp144
F1.0
s(I11
I46
tp145
F1.0
s(I2
(I60
I5
I50
tp146
tp147
F1.0
s(I23
I6
tp148
F1.0
s(I12
I41
tp149
F1.0
s(I19
I17
tp150
F1.0
s(I11
I4
tp151
F1.0
s(I24
I28
tp152
F1.0
s(I9
I0
tp153
F1.0
s(I13
I6
tp154
F1.0
s(I20
(I36
I23
I39
tp155
tp156
F1.0
s(I17
I51
tp157
F1.0
s(I0
I5
tp158
F1.0
s(I24
I2
tp159
F1.0
s(I12
I29
tp160
F1.0
s(I14
(I38
I33
I3
I37
I17
I31
tp161
tp162
F1.0
s(I1
I0
tp163
F1.0
s(I22
I46
tp164
F1.0
s(I11
(I52
I32
I9
I20
tp165
tp166
F1.0
s(I28
I24
tp167
F1.0
s(I2
I7
tp168
F1.0
s(I26
I56
tp169
F1.0
s(I5
I10
tp170
F1.0
s(I29
I29
tp171
F1.0
s(I28
(I34
I6
I1
I21
tp172
tp173
F1.0
s(I27
I53
tp174
F1.0
s(I21
(I24
I3
I14
tp175
tp176
F1.0
s(I9
(I33
I3
I37
I17
I5
I56
tp177
tp178
F1.0
s(I28
I54
tp179
F1.0
s(I2
I33
tp180
F1.0
s(I16
(I36
I23
tp181
tp182
F1.0
s(I7
I4
tp183
F1.0
s(I22
I36
tp184
F1.0
s(I3
I60
tp185
F1.0
s(I23
I33
tp186
F1.0
s(I17
(I6
I34
I8
I40
tp187
tp188
F1.0
s(I21
I17
tp189
F1.0
s(I28
I44
tp190
F1.0
s(I17
I17
tp191
F1.0
s(I7
I34
tp192
F1.0
s(I23
(I4
I36
I15
I2
I40
I51
tp193
tp194
F1.0
s(I14
(I60
I5
I17
I31
tp195
tp196
F1.0
s(I29
(I46
I0
I38
I33
I3
I37
tp197
tp198
F1.0
s(I12
I32
tp199
F1.0
s(I25
(I17
I28
tp200
tp201
F1.0
s(I10
I48
tp202
F1.0
s(I8
I0
tp203
F1.0
s(I1
(I4
I21
I11
tp204
tp205
F1.0
s(I9
I29
tp206
F1.0
s(I0
(I36
I4
I21
I38
I0
I19
tp207
tp208
F1.0
s(I3
(I38
I0
I40
tp209
tp210
F1.0
s(I14
(I33
I3
I37
I17
I31
tp211
tp212
F1.0
s(I27
I52
tp213
F1.0
s(I16
(I24
I4
I36
I23
tp214
tp215
F1.0
s(I14
I60
tp216
F1.0
s(I2
(I46
I0
I40
I2
I50
tp217
tp218
F1.0
s(I18
I46
tp219
F1.0
s(I29
(I54
I2
I15
I37
tp220
tp221
F1.0
s(I25
I4
tp222
F1.0
s(I11
(I54
I51
I34
I20
tp223
tp224
F1.0
s(I24
(I46
I44
I35
I5
I17
tp225
tp226
F1.0
s(I10
I33
tp227
F1.0
s(I25
(I34
I39
I13
I28
tp228
tp229
F1.0
s(I26
I3
tp230
F1.0
s(I14
I1
tp231
F1.0
s(I8
(I38
I8
I15
tp232
tp233
F1.0
s(I25
I46
tp234
F1.0
s(I19
(I6
I34
I51
I9
I63
tp235
tp236
F1.0
s(I4
I24
tp237
F1.0
s(I19
I32
tp238
F1.0
s(I14
(I15
I36
I17
I31
tp239
tp240
F1.0
s(I26
I45
tp241
F1.0
s(I0
I40
tp242
F1.0
s(I13
(I17
I36
I48
I57
I45
tp243
tp244
F1.0
s(I5
I29
tp245
F1.0
s(I8
(I17
I36
I15
tp246
tp247
F1.0
s(I25
(I60
I28
tp248
tp249
F1.0
s(I4
I38
tp250
F1.0
s(I19
I6
tp251
F1.0
s(I8
I33
tp252
F1.0
s(I11
(I46
I0
I38
I33
I7
I20
tp253
tp254
F1.0
s(I22
I17
tp255
F1.0
s(I0
I4
tp256
F1.0
s(I20
I1
tp257
F1.0
s(I9
I60
tp258
F1.0
s(I16
I33
tp259
F1.0
s(I6
I52
tp260
F1.0
s(I21
I4
tp261
F1.0
s(I16
I48
tp262
F1.0
s(I10
I59
tp263
F1.0
s(I7
I49
tp264
F1.0
s(I7
(I46
I55
I43
tp265
tp266
F1.0
s(I10
(I17
I36
I4
I16
I43
tp267
tp268
F1.0
s(I9
I6
tp269
F1.0
s(I14
I29
tp270
F1.0
s(I29
(I36
I15
I37
tp271
tp272
F1.0
s(I20
(I46
I21
I1
I39
tp273
tp274
F1.0
s(I10
I5
tp275
F1.0
s(I15
I24
tp276
F1.0
s(I7
(I45
I59
I43
tp277
tp278
F1.0
s(I28
I34
tp279
F1.0
s(I4
(I60
I5
I35
I53
I3
tp280
tp281
F1.0
s(I13
(I34
I39
I45
tp282
tp283
F1.0
s(I1
I1
tp284
F1.0
s(I11
(I29
I0
I38
I33
I7
I20
tp285
tp286
F1.0
s(I25
I13
tp287
F1.0
s(I15
I6
tp288
F1.0
s(I0
I9
tp289
F1.0
s(I24
I54
tp290
F1.0
s(I3
I4
tp291
F1.0
s(I27
I3
tp292
F1.0
s(I1
I52
tp293
F1.0
s(I6
(I36
I15
I8
I34
tp294
tp295
F1.0
s(I6
(I15
I8
I34
tp296
tp297
F1.0
s(I28
I4
tp298
F1.0
s(I14
(I46
I44
I35
I5
I17
I31
tp299
tp300
F1.0
s(I26
I52
tp301
F1.0
s(I7
(I4
I16
I43
tp302
tp303
F1.0
s(I22
I54
tp304
F1.0
s(I5
I6
tp305
F1.0
s(I20
I34
tp306
F1.0
s(I1
I46
tp307
F1.0
s(I16
I2
tp308
F1.0
s(I21
I35
tp309
F1.0
s(I4
I45
tp310
F1.0
s(I19
I15
tp311
F1.0
s(I2
I45
tp312
F1.0
s(I20
(I33
I38
I6
I1
I39
tp313
tp314
F1.0
s(I7
I16
tp315
F1.0
s(I22
I40
tp316
F1.0
s(I5
I32
tp317
F1.0
s(I1
(I29
I0
I38
I33
I11
tp318
tp319
F1.0
s(I9
I37
tp320
F1.0
s(I9
(I52
I32
I9
I42
I56
tp321
tp322
F1.0
s(I23
I45
tp323
F1.0
s(I8
(I54
I2
I15
tp324
tp325
F1.0
s(I12
(I6
I1
I16
I58
tp326
tp327
F1.0
s(I7
I46
tp328
F1.0
s(I22
I2
tp329
F1.0
s(I18
I34
tp330
F1.0
s(I15
(I34
I8
I7
I37
tp331
tp332
F1.0
s(I12
I44
tp333
F1.0
s(I18
I60
tp334
F1.0
s(I9
(I54
I61
I56
tp335
tp336
F1.0
s(I4
(I52
I0
I38
I33
I3
tp337
tp338
F1.0
s(I10
I34
tp339
F1.0
s(I15
I15
tp340
F1.0
s(I9
I35
tp341
F1.0
s(I0
I0
tp342
F1.0
s(I21
(I15
I37
I3
I14
tp343
tp344
F1.0
s(I21
(I38
I33
I3
I14
tp345
tp346
F1.0
s(I27
I24
tp347
F1.0
s(I19
I46
tp348
F1.0
s(I20
(I60
I42
I13
I39
tp349
tp350
F1.0
s(I11
(I6
I34
I20
tp351
tp352
F1.0
s(I24
I35
tp353
F1.0
s(I5
I15
tp354
F1.0
s(I29
I2
tp355
F1.0
s(I23
(I33
I38
I0
I40
I51
tp356
tp357
F1.0
s(I1
I39
tp358
F1.0
s(I24
(I52
I0
I38
I33
I3
I37
I17
tp359
tp360
F1.0
s(I9
(I6
I1
I39
I45
I42
I56
tp361
tp362
F1.0
s(I17
(I17
I36
I15
I2
I40
tp363
tp364
F1.0
s(I2
I36
tp365
F1.0
s(I17
I4
tp366
F1.0
s(I1
(I24
I3
I33
I11
tp367
tp368
F1.0
s(I5
I41
tp369
F1.0
s(I20
I23
tp370
F1.0
s(I9
I46
tp371
F1.0
s(I23
I42
tp372
F1.0
s(I6
I38
tp373
F1.0
s(I21
I22
tp374
F1.0
s(I10
I45
tp375
F1.0
s(I9
I15
tp376
F1.0
s(I11
I32
tp377
F1.0
s(I9
I48
tp378
F1.0
s(I23
I0
tp379
F1.0
s(I23
(I38
I0
I40
I51
tp380
tp381
F1.0
s(I0
(I45
I42
I9
I32
I19
tp382
tp383
F1.0
s(I10
I55
tp384
F1.0
s(I0
(I34
I6
I38
I0
I19
tp385
tp386
F1.0
s(I20
(I4
I36
I23
I39
tp387
tp388
F1.0
s(I13
I42
tp389
F1.0
s(I11
I6
tp390
F1.0
s(I6
(I6
I34
tp391
tp392
F1.0
s(I14
I17
tp393
F1.0
s(I12
I1
tp394
F1.0
s(I4
(I33
I3
tp395
tp396
F1.0
s(I10
I17
tp397
F1.0
s(I3
(I52
I0
I40
tp398
tp399
F1.0
s(I13
I4
tp400
F1.0
s(I9
(I45
I42
I56
tp401
tp402
F1.0
s(I2
I29
tp403
F1.0
s(I24
I4
tp404
F1.0
s(I19
(I33
I3
I37
I50
I63
tp405
tp406
F1.0
s(I27
I17
tp407
F1.0
s(I1
I6
tp408
F1.0
s(I25
I1
tp409
F1.0
s(I4
(I29
I53
I3
tp410
tp411
F1.0
s(I23
(I60
I42
I9
I51
tp412
tp413
F1.0
s(I2
I5
tp414
F1.0
s(I26
I6
tp415
F1.0
s(I26
(I6
I1
I16
I4
I22
I35
tp416
tp417
F1.0
s(I3
I24
tp418
F1.0
s(I27
I55
tp419
F1.0
s(I21
(I34
I6
I10
I14
tp420
tp421
F1.0
s(I1
(I6
I1
I21
I11
tp422
tp423
F1.0
s(I14
I37
tp424
F1.0
s(I19
I29
tp425
F1.0
s(I5
I34
tp426
F1.0
s(I7
I6
tp427
F1.0
s(I13
(I4
I36
I48
I57
I45
tp428
tp429
F1.0
s(I5
I18
tp430
F1.0
s(I1
(I36
I4
I21
I11
tp431
tp432
F1.0
s(I27
I45
tp433
F1.0
s(I8
(I45
I39
I34
I8
I15
tp434
tp435
F1.0
s(I29
(I4
I36
I15
I37
tp436
tp437
F1.0
s(I19
I3
tp438
F1.0
s(I8
I60
tp439
F1.0
s(I5
I60
tp440
F1.0
s(I20
I4
tp441
F1.0
s(I9
I17
tp442
F1.0
s(I6
I51
tp443
F1.0
s(I12
I34
tp444
F1.0
s(I19
(I4
I36
I15
I2
I50
I63
tp445
tp446
F1.0
s(I2
(I34
I8
I7
I37
I50
tp447
tp448
F1.0
s(I8
(I60
I5
I48
I2
I15
tp449
tp450
F1.0
s(I9
I3
tp451
F1.0
s(I14
I24
tp452
F1.0
s(I10
I24
tp453
F1.0
s(I26
I16
tp454
F1.0
s(I15
I29
tp455
F1.0
s(I10
(I46
I55
I43
tp456
tp457
F1.0
s(I25
(I52
I0
I38
I33
I7
I28
tp458
tp459
F1.0
s(I21
(I52
I32
I18
I14
tp460
tp461
F1.0
s(I25
(I15
I36
I17
I28
tp462
tp463
F1.0
s(I14
I2
tp464
F1.0
s(I4
(I6
I38
I33
I3
tp465
tp466
F1.0
s(I12
I22
tp467
F1.0
s(I22
(I46
I0
I52
tp468
tp469
F1.0
s(I4
(I36
I4
I22
I3
tp470
tp471
F1.0
s(I5
(I29
I49
I41
I14
tp472
tp473
F1.0
s(I19
I33
tp474
F1.0
s(I19
I60
tp475
F1.0
s(I26
I1
tp476
F1.0
s(I0
I52
tp477
F1.0
s(I16
(I54
I61
I23
tp478
tp479
F1.0
s(I14
I36
tp480
F1.0
s(I28
(I15
I36
I4
I21
tp481
tp482
F1.0
s(I25
I44
tp483
F1.0
s(I15
I33
tp484
F1.0
s(I23
I34
tp485
F1.0
s(I28
I15
tp486
F1.0
s(I15
(I54
I2
I15
I37
tp487
tp488
F1.0
s(I0
I42
tp489
F1.0
s(I27
I34
tp490
F1.0
s(I3
I36
tp491
F1.0
s(I13
(I24
I4
I36
I48
I57
I45
tp492
tp493
F1.0
s(I21
I24
tp494
F1.0
s(I28
(I4
I21
tp495
tp496
F1.0
s(I17
I8
tp497
F1.0
s(I5
I37
tp498
F1.0
s(I0
(I60
I44
I19
tp499
tp500
F1.0
s(I9
I34
tp501
F1.0
s(I3
(I46
I0
I40
tp502
tp503
F1.0
s(I8
(I33
I3
I37
I15
tp504
tp505
F1.0
s(I17
(I46
I0
I40
tp506
tp507
F1.0
s(I17
I34
tp508
F1.0
s(I11
I52
tp509
F1.0
s(I0
(I24
I3
I33
I19
tp510
tp511
F1.0
s(I9
I4
tp512
F1.0
s(I19
(I54
I63
tp513
tp514
F1.0
s(I7
(I54
I49
I43
tp515
tp516
F1.0
s(I10
I3
tp517
F1.0
s(I14
(I17
I31
tp518
tp519
F1.0
s(I14
(I6
I1
I39
I13
I31
tp520
tp521
F1.0
s(I21
I39
tp522
F1.0
s(I0
I21
tp523
F1.0
s(I14
I5
tp524
F1.0
s(I18
(I4
I16
I1
I6
I52
tp525
tp526
F1.0
s(I15
I0
tp527
F1.0
s(I3
(I33
I38
I0
I40
tp528
tp529
F1.0
s(I8
(I34
I8
I15
tp530
tp531
F1.0
s(I18
I1
tp532
F1.0
s(I3
I6
tp533
F1.0
s(I27
I5
tp534
F1.0
s(I15
I46
tp535
F1.0
s(I17
I15
tp536
F1.0
s(I4
I1
tp537
F1.0
s(I28
I6
tp538
F1.0
s(I0
I33
tp539
F1.0
s(I23
I36
tp540
F1.0
s(I5
I4
tp541
F1.0
s(I29
I7
tp542
F1.0
s(I9
(I36
I48
I5
I56
tp543
tp544
F1.0
s(I8
(I29
I2
I15
tp545
tp546
F1.0
s(I16
I4
tp547
F1.0
s(I6
(I17
I36
I15
I8
I34
tp548
tp549
F1.0
s(I21
I33
tp550
F1.0
s(I28
I60
tp551
F1.0
s(I4
(I45
I39
I1
I6
I38
I33
I3
tp552
tp553
F1.0
s(I5
I46
tp554
F1.0
s(I29
I33
tp555
F1.0
s(I7
(I17
I36
I4
I16
I43
tp556
tp557
F1.0
s(I18
I6
tp558
F1.0
s(I6
I45
tp559
F1.0
s(I4
I53
tp560
F1.0
s(I15
(I52
I0
I38
I33
I3
I37
tp561
tp562
F1.0
s(I8
I48
tp563
F1.0
s(I22
I0
tp564
F1.0
s(I11
I45
tp565
F1.0
s(I5
(I6
I10
I14
tp566
tp567
F1.0
s(I0
(I54
I2
I40
I0
I19
tp568
tp569
F1.0
s(I12
I46
tp570
F1.0
s(I20
I46
tp571
F1.0
s(I10
(I36
I4
I16
I43
tp572
tp573
F1.0
s(I26
(I15
I2
I48
I5
I35
tp574
tp575
F1.0
s(I16
I36
tp576
F1.0
s(I3
(I54
I2
I40
tp577
tp578
F1.0
s(I4
(I4
I22
I3
tp579
tp580
F1.0
s(I24
(I15
I36
I17
tp581
tp582
F1.0
s(I12
I4
tp583
F1.0
s(I6
(I52
I6
I34
tp584
tp585
F1.0
s(I0
I2
tp586
F1.0
s(I14
I54
tp587
F1.0
s(I3
I15
tp588
F1.0
s(I20
(I24
I4
I36
I23
I39
tp589
tp590
F1.0
s(I1
I3
tp591
F1.0
s(I8
I52
tp592
F1.0
s(I12
(I24
I3
I14
I58
tp593
tp594
F1.0
s(I28
I29
tp595
F1.0
s(I2
I8
tp596
F1.0
s(I0
(I29
I0
I19
tp597
tp598
F1.0
s(I17
(I54
I2
I40
tp599
tp600
F1.0
s(I24
I37
tp601
F1.0
s(I29
I0
tp602
F1.0
s(I25
I34
tp603
F1.0
s(I23
(I6
I34
I51
tp604
tp605
F1.0
s(I20
(I6
I1
I39
tp606
tp607
F1.0
s(I4
I22
tp608
F1.0
s(I22
(I33
I38
I0
I52
tp609
tp610
F1.0
s(I22
I33
tp611
F1.0
s(I20
I17
tp612
F1.0
s(I9
I44
tp613
F1.0
s(I17
(I52
I0
I40
tp614
tp615
F1.0
s(I16
I17
tp616
F1.0
s(I6
I36
tp617
F1.0
s(I16
(I29
I2
I15
I36
I23
tp618
tp619
F1.0
s(I3
(I6
I34
I8
I40
tp620
tp621
F1.0
s(I7
I33
tp622
F1.0
s(I5
I49
tp623
F1.0
s(I11
I34
tp624
F1.0
s(I9
I54
tp625
F1.0
s(I23
(I45
I51
tp626
tp627
F1.0
s(I23
I2
tp628
F1.0
s(I27
I35
tp629
F1.0
s(I8
I29
tp630
F1.0
s(I8
(I6
I34
I8
I15
tp631
tp632
F1.0
s(I13
I40
tp633
F1.0
s(I17
I54
tp634
F1.0
s(I9
I24
tp635
F1.0
s(I2
(I15
I2
I50
tp636
tp637
F1.0
s(I14
I23
tp638
F1.0
s(I13
I1
tp639
F1.0
s(I12
I3
tp640
F1.0
s(I6
I33
tp641
F1.0
s(I25
I29
tp642
F1.0
s(I13
I2
tp643
F1.0
s(I14
(I24
I3
I37
I17
I31
tp644
tp645
F1.0
s(I24
I6
tp646
F1.0
s(I29
I60
tp647
F1.0
s(I1
I4
tp648
F1.0
s(I25
I7
tp649
F1.0
s(I15
I60
tp650
F1.0
s(I27
(I29
tp651
tp652
F1.0
s(I12
(I45
I39
I1
I16
I58
tp653
tp654
F1.0
s(I2
I3
tp655
F1.0
s(I26
I4
tp656
F1.0
s(I24
I44
tp657
F1.0
s(I14
I35
tp658
F1.0
s(I11
(I15
I37
I7
I20
tp659
tp660
F1.0
s(I15
(I33
I3
I37
tp661
tp662
F1.0
s(I20
(I29
I0
I38
I6
I1
I39
tp663
tp664
F1.0
s(I15
(I29
I2
I15
I37
tp665
tp666
F1.0
s(I4
I29
tp667
F1.0
s(I29
(I60
I5
I17
I37
tp668
tp669
F1.0
s(I26
I46
tp670
F1.0
s(I7
I0
tp671
F1.0
s(I29
I24
tp672
F1.0
s(I5
I16
tp673
F1.0
s(I20
I24
tp674
F1.0
s(I16
(I15
I36
I23
tp675
tp676
F1.0
s(I11
(I45
I39
I34
I20
tp677
tp678
F1.0
s(I10
(I6
I1
I16
I43
tp679
tp680
F1.0
s(I21
I29
tp681
F1.0
s(I19
I5
tp682
F1.0
s(I16
(I38
I6
I1
I39
I23
tp683
tp684
F1.0
s(I27
(I24
I29
tp685
tp686
F1.0
s(I20
I6
tp687
F1.0
s(I13
(I15
I2
I40
I51
I45
tp688
tp689
F1.0
s(I18
(I52
tp690
tp691
F1.0
s(I16
I46
tp692
F1.0
s(I2
(I38
I0
I40
I2
I50
tp693
tp694
F1.0
s(I10
I60
tp695
F1.0
s(I8
I4
tp696
F1.0
s(I7
I52
tp697
F1.0
s(I13
I33
tp698
F1.0
s(I6
(I34
tp699
tp700
F1.0
s(I0
(I46
I0
I19
tp701
tp702
F1.0
s(I9
I1
tp703
F1.0
s(I28
(I6
I1
I21
tp704
tp705
F1.0
s(I2
(I4
I36
I15
I2
I50
tp706
tp707
F1.0
s(I10
I6
tp708
F1.0
s(I4
(I38
I33
I3
tp709
tp710
F1.0
s(I18
(I6
I52
tp711
tp712
F1.0
s(I11
(I38
I33
I7
I20
tp713
tp714
F1.0
s(I18
(I34
I6
I52
tp715
tp716
F1.0
s(I2
I54
tp717
F1.0
s(I24
I13
tp718
F1.0
s(I3
(I34
I8
I40
tp719
tp720
F1.0
s(I1
I29
tp721
F1.0
s(I6
(I38
I6
I34
tp722
tp723
F1.0
s(I5
(I54
I49
I41
I14
tp724
tp725
F1.0
s(I21
(I46
I0
I38
I33
I3
I14
tp726
tp727
F1.0
s(I26
I15
tp728
F1.0
s(I0
I54
tp729
F1.0
s(I14
I42
tp730
F1.0
s(I4
(I24
I3
tp731
tp732
F1.0
s(I21
I60
tp733
F1.0
s(I4
I4
tp734
F1.0
s(I19
I36
tp735
F1.0
s(I18
I29
tp736
F1.0
s(I6
(I45
I39
I34
tp737
tp738
F1.0
s(I0
I44
tp739
F1.0
s(I22
I51
tp740
F1.0
s(I27
I36
tp741
F1.0
s(I16
I15
tp742
F1.0
s(I21
I38
tp743
F1.0
s(I4
I34
tp744
F1.0
s(I27
(I6
I38
I0
I29
tp745
tp746
F1.0
s(I2
I46
tp747
F1.0
s(I8
I37
tp748
F1.0
s(I21
(I4
I16
I10
I14
tp749
tp750
F1.0
s(I5
I35
tp751
F1.0
s(I29
I38
tp752
F1.0
s(I15
(I36
I15
I37
tp753
tp754
F1.0
s(I9
I32
tp755
F1.0
s(I16
I37
tp756
F1.0
s(I21
I0
tp757
F1.0
s(I5
(I52
I32
I18
I14
tp758
tp759
F1.0
s(I7
I45
tp760
F1.0
s(I22
I15
tp761
F1.0
s(I15
(I60
I5
I17
I37
tp762
tp763
F1.0
s(I16
(I60
I5
I48
I36
I23
tp764
tp765
F1.0
s(I20
(I34
I39
tp766
tp767
F1.0
s(I20
(I54
I51
I34
I39
tp768
tp769
F1.0
s(I18
(I33
I38
I0
I52
tp770
tp771
F1.0
s(I12
I49
tp772
F1.0
s(I10
I1
tp773
F1.0
s(I9
I5
tp774
F1.0
s(I8
I17
tp775
F1.0
s(I8
I45
tp776
F1.0
s(I13
I52
tp777
F1.0
s(I15
(I4
I36
I15
I37
tp778
tp779
F1.0
s(I7
I15
tp780
F1.0
s(I19
(I29
I2
I50
I63
tp781
tp782
F1.0
s(I12
I15
tp783
F1.0
s(I26
(I36
I4
I22
I35
tp784
tp785
F1.0
s(I1
I22
tp786
F1.0
s(I25
I17
tp787
F1.0
s(I15
I2
tp788
F1.0
s(I14
I44
tp789
F1.0
s(I26
I22
tp790
F1.0
s(I14
I45
tp791
F1.0
s(I15
(I17
I37
tp792
tp793
F1.0
s(I3
I8
tp794
F1.0
s(I25
(I4
I36
I17
I28
tp795
tp796
F1.0
s(I29
(I45
I39
I34
I8
I7
I37
tp797
tp798
F1.0
s(I28
I0
tp799
F1.0
s(I2
I15
tp800
F1.0
s(I26
I48
tp801
F1.0
s(I0
I35
tp802
F1.0
s(I9
I40
tp803
F1.0
s(I3
I46
tp804
F1.0
s(I17
(I4
I36
I15
I2
I40
tp805
tp806
F1.0
s(I27
(I60
I5
I35
I53
I29
tp807
tp808
F1.0
s(I6
I9
tp809
F1.0
s(I21
I47
tp810
F1.0
s(I28
(I33
I38
I21
tp811
tp812
F1.0
s(I1
(I38
I33
I11
tp813
tp814
F1.0
s(I16
I29
tp815
F1.0
s(I22
(I24
I38
I0
I52
tp816
tp817
F1.0
s(I3
I52
tp818
F1.0
s(I18
I4
tp819
F1.0
s(I7
(I29
I49
I43
tp820
tp821
F1.0
s(I10
I46
tp822
F1.0
s(I24
I0
tp823
F1.0
s(I26
(I38
I0
I46
I44
I35
tp824
tp825
F1.0
s(I25
(I24
I3
I33
I7
I28
tp826
tp827
F1.0
s(I22
I6
tp828
F1.0
s(I5
I54
tp829
F1.0
s(I6
I42
tp830
F1.0
s(I8
I24
tp831
F1.0
s(I6
(I29
I0
I38
I6
I34
tp832
tp833
F1.0
s(I18
I16
tp834
F1.0
s(I12
I6
tp835
F1.0
s(I13
(I54
I51
I45
tp836
tp837
F1.0
s(I16
(I34
I39
I23
tp838
tp839
F1.0
s(I11
(I33
I7
I20
tp840
tp841
F1.0
s(I26
I17
tp842
F1.0
s(I1
(I52
I0
I38
I33
I11
tp843
tp844
F1.0
s(I24
I1
tp845
F1.0
s(I14
I52
tp846
F1.0
s(I19
(I60
I5
I50
I63
tp847
tp848
F1.0
s(I25
I60
tp849
F1.0
s(I29
I6
tp850
F1.0
s(I19
I50
tp851
F1.0
s(I2
I6
tp852
F1.0
s(I19
I0
tp853
F1.0
s(I24
I39
tp854
F1.0
s(I11
I28
tp855
F1.0
s(I25
I38
tp856
F1.0
s(I6
I0
tp857
F1.0
s(I1
I17
tp858
F1.0
s(I19
I24
tp859
F1.0
s(I7
I5
tp860
F1.0
s(I17
I45
tp861
F1.0
s(I27
I40
tp862
F1.0
s(I14
(I36
I17
I31
tp863
tp864
F1.0
s(I23
I38
tp865
F1.0
s(I24
(I24
I3
I37
I17
tp866
tp867
F1.0
s(I21
I18
tp868
F1.0
s(I12
(I54
I49
I41
I14
I58
tp869
tp870
F1.0
s(I10
I41
tp871
F1.0
s(I24
(I4
I36
I17
tp872
tp873
F1.0
s(I7
I35
tp874
F1.0
s(I11
I36
tp875
F1.0
s(I26
(I17
I5
I35
tp876
tp877
F1.0
s(I9
I52
tp878
F1.0
s(I2
(I52
I0
I40
I2
I50
tp879
tp880
F1.0
s(I6
I60
tp881
F1.0
s(I12
I39
tp882
F1.0
s(I17
I52
tp883
F1.0
s(I10
(I29
I49
I43
tp884
tp885
F1.0
s(I13
I38
tp886
F1.0
s(I18
(I36
I4
I16
I1
I6
I52
tp887
tp888
F1.0
s(I18
I51
tp889
F1.0
s(I3
I12
tp890
F1.0
s(I10
I29
tp891
F1.0
s(I13
I0
tp892
F1.0
s(I29
I45
tp893
F1.0
s(I26
I24
tp894
F1.0
s(I25
(I54
I2
I40
I8
I7
I28
tp895
tp896
F1.0
s(I27
(I54
I2
I29
tp897
tp898
F1.0
s(I27
(I45
I51
I40
I0
I29
tp899
tp900
F1.0
s(I28
(I24
I4
I21
tp901
tp902
F1.0
s(I13
(I29
I0
I40
I51
I45
tp903
tp904
F1.0
s(I26
I2
tp905
F1.0
s(I21
(I29
I49
I41
I14
tp906
tp907
F1.0
s(I24
I46
tp908
F1.0
s(I14
I33
tp909
F1.0
s(I20
I60
tp910
F1.0
s(I1
I60
tp911
F1.0
s(I23
(I15
I2
I40
I51
tp912
tp913
F1.0
s(I15
I36
tp914
F1.0
s(I21
I49
tp915
F1.0
s(I28
I40
tp916
F1.0
s(I7
I29
tp917
F1.0
s(I26
I44
tp918
F1.0
s(I7
I2
tp919
F1.0
s(I9
I42
tp920
F1.0
s(I3
I34
tp921
F1.0
s(I27
I33
tp922
F1.0
s(I6
I29
tp923
F1.0
s(I26
(I45
I42
I56
I5
I35
tp924
tp925
F1.0
s(I4
I37
tp926
F1.0
s(I18
(I17
I36
I4
I16
I1
I6
I52
tp927
tp928
F1.0
s(I9
(I15
I2
I48
I5
I56
tp929
tp930
F1.0
s(I7
I24
tp931
F1.0
s(I22
I16
tp932
F1.0
s(I20
I0
tp933
F1.0
s(I9
(I38
I0
I40
I2
I48
I5
I56
tp934
tp935
F1.0
s(I9
I61
tp936
F1.0
s(I21
I5
tp937
F1.0
s(I24
(I17
tp938
tp939
F1.0
s(I7
I54
tp940
F1.0
s(I4
I0
tp941
F1.0
s(I19
(I24
I3
I37
I50
I63
tp942
tp943
F1.0
s(I11
I51
tp944
F1.0
s(I23
(I24
I38
I0
I40
I51
tp945
tp946
F1.0
s(I29
(I15
I37
tp947
tp948
F1.0
s(I17
(I24
I38
I0
I40
tp949
tp950
F1.0
s(I12
I52
tp951
F1.0
s(I10
I4
tp952
F1.0
s(I22
(I15
I2
I40
I0
I52
tp953
tp954
F1.0
s(I0
(I17
I5
I35
I44
I19
tp955
tp956
F1.0
s(I13
I57
tp957
F1.0
s(I23
I9
tp958
F1.0
s(I29
(I29
I2
I15
I37
tp959
tp960
F1.0
s(I26
I53
tp961
F1.0
s(I24
I15
tp962
F1.0
s(I14
I6
tp963
F1.0
s(I12
I18
tp964
F1.0
s(I22
(I60
I44
I46
I0
I52
tp965
tp966
F1.0
s(I26
I38
tp967
F1.0
s(I15
I7
tp968
F1.0
s(I12
(I29
I49
I41
I14
I58
tp969
tp970
F1.0
s(I2
I24
tp971
F1.0
s(I12
(I38
I33
I3
I14
I58
tp972
tp973
F1.0
s(I8
(I24
I15
tp974
tp975
F1.0
s(I15
I45
tp976
F1.0
s(I4
I6
tp977
F1.0
s(I28
I11
tp978
F1.0
s(I18
I36
tp979
F1.0
s(I0
I46
tp980
F1.0
s(I22
I49
tp981
F1.0
s(I3
I45
tp982
F1.0
s(I20
I33
tp983
F1.0
s(I7
(I6
I1
I16
I43
tp984
tp985
F1.0
s(I27
I38
tp986
F1.0
s(I16
I1
tp987
F1.0
s(I21
I36
tp988
F1.0
s(I28
I33
tp989
F1.0
s(I17
I12
tp990
F1.0
s(I7
I17
tp991
F1.0
s(I5
I33
tp992
F1.0
s(I20
I15
tp993
F1.0
s(I9
(I34
I39
I45
I42
I56
tp994
tp995
F1.0
s(I9
I38
tp996
F1.0
s(I16
I3
tp997
F1.0
s(I16
I39
tp998
F1.0
s(I9
(I24
I3
I37
I17
I5
I56
tp999
tp1000
F1.0
s(I10
(I45
I59
I43
tp1001
tp1002
F1.0
s(I17
I38
tp1003
F1.0
s(I7
I47
tp1004
F1.0
s(I13
(I60
I42
I45
tp1005
tp1006
F1.0
s(I5
(I4
I16
I10
I14
tp1007
tp1008
F1.0
s(I2
(I17
I5
I50
tp1009
tp1010
F1.0
s(I5
(I46
I0
I38
I33
I3
I14
tp1011
tp1012
F1.0
s(I27
(I46
I0
I29
tp1013
tp1014
F1.0
s(I4
I46
tp1015
F1.0
s(I2
I34
tp1016
F1.0
s(I0
I38
tp1017
F1.0
s(I15
(I24
I3
I37
tp1018
tp1019
F1.0
s(I8
I6
tp1020
F1.0
s(I14
I9
tp1021
F1.0
s(I6
(I4
I36
I15
I8
I34
tp1022
tp1023
F1.0
s(I14
I39
tp1024
F1.0
s(I18
I44
tp1025
F1.0
s(I15
(I15
I37
tp1026
tp1027
F1.0
s(I0
(I38
I0
I19
tp1028
tp1029
F1.0
s(I0
I15
tp1030
F1.0
s(I24
I60
tp1031
F1.0
s(I7
(I36
I4
I16
I43
tp1032
tp1033
F1.0
s(I9
(I46
I44
I35
I5
I56
tp1034
tp1035
F1.0
s(I28
I2
tp1036
F1.0
s(I24
I34
tp1037
F1.0
s(I5
I0
tp1038
F1.0
s(I29
I3
tp1039
F1.0
s(I0
(I4
I21
I38
I0
I19
tp1040
tp1041
F1.0
s(I16
I5
tp1042
F1.0
s(I6
I15
tp1043
F1.0
s(I21
I45
tp1044
F1.0
s(I4
(I17
I22
I3
tp1045
tp1046
F1.0
s(I28
I46
tp1047
F1.0
s(I27
I0
tp1048
F1.0
s(I7
I14
tp1049
F1.0
s(I22
I34
tp1050
F1.0
s(I23
(I54
I51
tp1051
tp1052
F1.0
s(I22
(I29
I0
I52
tp1053
tp1054
F1.0
s(I3
I54
tp1055
F1.0
s(I18
I2
tp1056
F1.0
s(I18
(I29
I0
I52
tp1057
tp1058
F1.0
s(I12
(I46
I44
I35
I47
I58
tp1059
tp1060
F1.0
s(I1
(I33
I11
tp1061
tp1062
F1.0
s(I19
(I36
I15
I2
I50
I63
tp1063
tp1064
F1.0
s(I7
I36
tp1065
F1.0
s(I22
I4
tp1066
F1.0
s(I5
I52
tp1067
F1.0
s(I11
I33
tp1068
F1.0
s(I16
I52
tp1069
F1.0
s(I15
I8
tp1070
F1.0
s(I10
I54
tp1071
F1.0
s(I20
I54
tp1072
F1.0
s(I11
I7
tp1073
F1.0
s(I18
I54
tp1074
F1.0
s(I24
I29
tp1075
F1.0
s(I19
I38
tp1076
F1.0
s(I10
I16
tp1077
F1.0
s(I25
I24
tp1078
F1.0
s(I21
(I60
I5
I35
I47
I41
I14
tp1079
tp1080
F1.0
s(I11
I29
tp1081
F1.0
s(I16
(I6
I1
I39
I23
tp1082
tp1083
F1.0
s(I0
I6
tp1084
F1.0
s(I24
I3
tp1085
F1.0
s(I10
(I52
I49
I43
tp1086
tp1087
F1.0
s(I19
I34
tp1088
F1.0
s(I11
I9
tp1089
F1.0
s(I10
(I4
I16
I43
tp1090
tp1091
F1.0
s(I25
I2
tp1092
F1.0
s(I22
(I34
I6
I52
tp1093
tp1094
F1.0
s(I10
(I34
I6
I1
I16
I43
tp1095
tp1096
F1.0
s(I25
(I33
I7
I28
tp1097
tp1098
F1.0
s(I19
I52
tp1099
F1.0
s(I2
I4
tp1100
F1.0
s(I0
I60
tp1101
F1.0
s(I27
(I4
I55
I29
tp1102
tp1103
F1.0
s(I10
(I38
I0
I46
I55
I43
tp1104
tp1105
F1.0
s(I25
I36
tp1106
F1.0
s(I6
I6
tp1107
F1.0
s(I21
I54
tp1108
F1.0
s(I4
I17
tp1109
F1.0
s(I26
(I24
I3
I53
I35
tp1110
tp1111
F1.0
s(I6
(I24
I38
I6
I34
tp1112
tp1113
F1.0
s(I29
I54
tp1114
F1.0
s(I16
(I46
I21
I1
I39
I23
tp1115
tp1116
F1.0
s(I16
I21
tp1117
F1.0
s(I6
I24
tp1118
F1.0
s(I21
I16
tp1119
F1.0
s(I17
I2
tp1120
F1.0
s(I28
I45
tp1121
F1.0
s(I26
I34
tp1122
F1.0
s(I25
I8
tp1123
F1.0
s(I11
I38
tp1124
F1.0
s(I8
I2
tp1125
F1.0
s(I11
(I36
I15
I37
I7
I20
tp1126
tp1127
F1.0
s(I23
I52
tp1128
F1.0
s(I15
I5
tp1129
F1.0
s(I12
I33
tp1130
F1.0
s(I10
I49
tp1131
F1.0
s(I7
I59
tp1132
F1.0
s(I13
I36
tp1133
F1.0
s(I11
I60
tp1134
F1.0
s(I18
I49
tp1135
F1.0
s(I27
(I17
I36
I4
I55
I29
tp1136
tp1137
F1.0
s(I12
(I34
I6
I1
I16
I58
tp1138
tp1139
F1.0
s(I17
(I36
I15
I2
I40
tp1140
tp1141
F1.0
s(I25
I3
tp1142
F1.0
s(I27
(I34
I6
I38
I0
I29
tp1143
tp1144
F1.0
s(I0
I29
tp1145
F1.0
s(I14
I61
tp1146
F1.0
s(I16
(I52
I6
I1
I39
I23
tp1147
tp1148
F1.0
s(I25
(I36
I17
I28
tp1149
tp1150
F1.0
s(I1
I24
tp1151
F1.0
s(I25
I11
tp1152
F1.0
s(I8
I39
tp1153
F1.0
s(I13
I24
tp1154
F1.0
s(I26
I0
tp1155
F1.0
s(I21
(I54
I49
I41
I14
tp1156
tp1157
F1.0
s(I25
(I46
I44
I11
I28
tp1158
tp1159
F1.0
s(I2
(I6
I34
I8
I7
I37
I50
tp1160
tp1161
F1.0
s(I19
(I52
I32
I9
I63
tp1162
tp1163
F1.0
s(I6
(I54
I51
I34
tp1164
tp1165
F1.0
s(I25
I45
tp1166
F1.0
s(I15
I38
tp1167
F1.0
s(I12
I16
tp1168
F1.0
s(I26
I42
tp1169
F1.0
s(I22
I60
tp1170
F1.0
s(I20
I36
tp1171
F1.0
s(I22
(I52
tp1172
tp1173
F1.0
s(I29
I36
tp1174
F1.0
s(I4
I39
tp1175
F1.0
s(I28
I36
tp1176
F1.0
s(I8
I34
tp1177
F1.0
s(I5
I38
tp1178
F1.0
s(I20
(I17
I36
I23
I39
tp1179
tp1180
F1.0
s(I1
(I60
I44
I11
tp1181
tp1182
F1.0
s(I16
I34
tp1183
F1.0
s(I22
(I17
I36
I4
I16
I1
I6
I52
tp1184
tp1185
F1.0
s(I10
(I15
I2
I48
I55
I43
tp1186
tp1187
F1.0
s(I22
(I54
I49
I52
tp1188
tp1189
F1.0
s(I8
I8
tp1190
F1.0
s(I7
I48
tp1191
F1.0
s(I28
(I45
I39
I1
I21
tp1192
tp1193
F1.0
s(I17
(I34
I8
I40
tp1194
tp1195
F1.0
s(I18
I40
tp1196
F1.0
s(I13
(I33
I38
I0
I40
I51
I45
tp1197
tp1198
F1.0
s(I6
I46
tp1199
F1.0
s(I12
I54
tp1200
F1.0
s(I10
I2
tp1201
F1.0
s(I21
(I45
I39
I1
I6
I10
I14
tp1202
tp1203
F1.0
s(I3
(I60
I12
I40
tp1204
tp1205
F1.0
s(I11
I39
tp1206
F1.0
s(I2
(I24
I3
I37
I50
tp1207
tp1208
F1.0
s(I14
I4
tp1209
F1.0
s(I12
(I33
I3
I14
I58
tp1210
tp1211
F1.0
s(I21
(I36
I4
I16
I10
I14
tp1212
tp1213
F1.0
s(I23
(I46
I0
I40
I51
tp1214
tp1215
F1.0
s(I2
I52
tp1216
F1.0
s(I0
(I15
I2
I40
I0
I19
tp1217
tp1218
F1.0
s(I13
I17
tp1219
F1.0
s(I13
(I6
I1
I39
I45
tp1220
tp1221
F1.0
s(I14
(I45
I39
I13
I31
tp1222
tp1223
F1.0
s(I14
I46
tp1224
F1.0
s(I27
I2
tp1225
F1.0
s(I25
I54
tp1226
F1.0
s(I11
(I34
I20
tp1227
tp1228
F1.0
s(I19
I40
tp1229
F1.0
s(I13
(I38
I0
I40
I51
I45
tp1230
tp1231
F1.0
s(I0
I32
tp1232
F1.0
s(I5
I5
tp1233
F1.0
s(I29
I8
tp1234
F1.0
s(I27
(I36
I4
I55
I29
tp1235
tp1236
F1.0
s(I1
I45
tp1237
F1.0
s(I23
I54
tp1238
F1.0
s(I11
(I24
I3
I33
I7
I20
tp1239
tp1240
F1.0
s(I19
I9
tp1241
F1.0
s(I2
I42
tp1242
F1.0
s(I20
(I38
I6
I1
I39
tp1243
tp1244
F1.0
s(I5
I47
tp1245
F1.0
s(I29
I34
tp1246
F1.0
s(I3
I51
tp1247
F1.0
s(I9
I36
tp1248
F1.0
s(I19
(I15
I2
I50
I63
tp1249
tp1250
F1.0
s(I7
(I60
I5
I35
I47
I43
tp1251
tp1252
F1.0
s(I4
I52
tp1253
F1.0
s(I24
(I54
I2
I15
I36
I17
tp1254
tp1255
F1.0
s(I17
I36
tp1256
F1.0
s(I7
I41
tp1257
F1.0
s(I7
(I24
I4
I16
I43
tp1258
tp1259
F1.0
s(I11
I42
tp1260
F1.0
s(I27
(I52
I0
I29
tp1261
tp1262
F1.0
s(I22
(I38
I0
I52
tp1263
tp1264
F1.0
s(I28
(I29
I0
I38
I21
tp1265
tp1266
F1.0
s(I11
(I17
I28
I7
I20
tp1267
tp1268
F1.0
s(I12
I45
tp1269
F1.0
s(I16
I61
tp1270
F1.0
s(I22
I38
tp1271
F1.0
s(I12
I60
tp1272
F1.0
s(I13
I48
tp1273
F1.0
s(I11
I0
tp1274
F1.0
s(I29
(I17
I37
tp1275
tp1276
F1.0
s(I24
I24
tp1277
F1.0
s(I14
I15
tp1278
F1.0
s(I28
I17
tp1279
F1.0
s(I28
I39
tp1280
F1.0
s(I2
I17
tp1281
F1.0
s(I10
I15
tp1282
F1.0
s(I3
(I29
I0
I40
tp1283
tp1284
F1.0
s(I15
I52
tp1285
F1.0
s(I10
(I33
I3
I14
I41
I47
I43
tp1286
tp1287
F1.0
s(I4
I15
tp1288
F1.0
s(I14
(I29
I2
I15
I36
I17
I31
tp1289
tp1290
F1.0
s(I4
(I34
I6
I38
I33
I3
tp1291
tp1292
F1.0
s(I24
I36
tp1293
F1.0
s(I29
(I38
I33
I3
I37
tp1294
tp1295
F1.0
s(I20
I42
tp1296
F1.0
s(I1
I38
tp1297
F1.0
s(I29
(I33
I3
I37
tp1298
tp1299
F1.0
s(I1
(I54
I2
I40
I0
I38
I33
I11
tp1300
tp1301
F1.0
s(I24
(I38
I33
I3
I37
I17
tp1302
tp1303
F1.0
s(I2
I37
tp1304
F1.0
s(I28
(I36
I4
I21
tp1305
tp1306
F1.0
s(I20
I13
tp1307
F1.0
s(I25
(I38
I33
I7
I28
tp1308
tp1309
F1.0
s(I6
I39
tp1310
F1.0
s(I4
(I15
I37
I3
tp1311
tp1312
F1.0
s(I2
(I29
I2
I50
tp1313
tp1314
F1.0
s(I24
(I60
I5
I17
tp1315
tp1316
F1.0
s(I17
I29
tp1317
F1.0
s(I7
I38
tp1318
F1.0
s(I16
(I45
I39
I23
tp1319
tp1320
F1.0
s(I18
(I24
I38
I0
I52
tp1321
tp1322
F1.0
s(I26
I60
tp1323
F1.0
s(I16
(I17
I36
I23
tp1324
tp1325
F1.0
s(I16
I54
tp1326
F1.0
s(I20
I29
tp1327
F1.0
s(I12
I36
tp1328
F1.0
s(I7
(I33
I3
I14
I41
I47
I43
tp1329
tp1330
F1.0
s(I10
I52
tp1331
F1.0
s(I7
(I38
I0
I46
I55
I43
tp1332
tp1333
F1.0
s(I7
I60
tp1334
F1.0
s(I14
(I4
I36
I17
I31
tp1335
tp1336
F1.0
s(I16
(I33
I3
I37
I15
I36
I23
tp1337
tp1338
F1.0
s(I2
(I36
I15
I2
I50
tp1339
tp1340
F1.0
s(I1
(I15
I36
I4
I21
I11
tp1341
tp1342
F1.0
s(I13
(I36
I48
I57
I45
tp1343
tp1344
F1.0
s(I21
(I33
I3
I14
tp1345
tp1346
F1.0
s(I1
(I46
I44
I11
tp1347
tp1348
F1.0
s(I14
(I52
I32
I9
I42
I13
I31
tp1349
tp1350
F1.0
s(I26
I29
tp1351
F1.0
s(I0
I24
tp1352
F1.0
s(I23
(I17
I36
I15
I2
I40
I51
tp1353
tp1354
F1.0
s(I8
(I36
I15
tp1355
tp1356
F1.0
s(I12
I24
tp1357
F1.0
s(I27
(I33
I3
I53
I29
tp1358
tp1359
F1.0
s(I25
I0
tp1360
F1.0
s(I26
(I52
I0
I46
I44
I35
tp1361
tp1362
F1.0
s(I28
(I38
I21
tp1363
tp1364
F1.0
s(I19
I54
tp1365
F1.0
s(I5
(I60
I5
I35
I47
I41
I14
tp1366
tp1367
F1.0
s(I5
(I24
I3
I14
tp1368
tp1369
F1.0
s(I3
(I24
I38
I0
I40
tp1370
tp1371
F1.0
s(I14
I34
tp1372
F1.0
s(I27
I54
tp1373
F1.0
s(I25
I33
tp1374
F1.0
s(I6
I4
tp1375
F1.0
s(I21
I52
tp1376
F1.0
s(I22
(I36
I4
I16
I1
I6
I52
tp1377
tp1378
F1.0
s(I19
(I46
I0
I40
I2
I50
I63
tp1379
tp1380
F1.0
s(I2
I60
tp1381
F1.0
s(I26
I33
tp1382
F1.0
s(I7
I1
tp1383
F1.0
s(I22
(I45
I51
I52
tp1384
tp1385
F1.0
s(I5
I17
tp1386
F1.0
s(I29
I52
tp1387
F1.0
s(I3
I33
tp1388
F1.0
s(I0
(I52
I0
I19
tp1389
tp1390
F1.0
s(I19
(I38
I0
I40
I2
I50
I63
tp1391
tp1392
F1.0
s(I12
I38
tp1393
F1.0
s(I19
I2
tp1394
F1.0
s(I18
(I15
I2
I40
I0
I52
tp1395
tp1396
F1.0
s(I11
I54
tp1397
F1.0
s(I22
I29
tp1398
F1.0
s(I6
(I33
I38
I6
I34
tp1399
tp1400
F1.0
s(I29
I46
tp1401
F1.0
s(I23
I24
tp1402
F1.0
s(I11
(I60
I42
I9
I20
tp1403
tp1404
F1.0
s(I12
I35
tp1405
F1.0
s(I8
I3
tp1406
F1.0
s(I11
I3
tp1407
F1.0
s(I13
I34
tp1408
F1.0
s(I1
I34
tp1409
F1.0
s(I18
(I54
I49
I52
tp1410
tp1411
F1.0
s(I9
I2
tp1412
F1.0
s(I3
(I45
I51
I40
tp1413
tp1414
F1.0
s(I28
(I54
I2
I40
I0
I38
I21
tp1415
tp1416
F1.0
s(I13
I29
tp1417
F1.0
s(I13
I60
tp1418
F1.0
s(I1
(I17
I22
I11
tp1419
tp1420
F1.0
s(I18
(I60
I44
I46
I0
I52
tp1421
tp1422
F1.0
s(I2
(I54
I2
I50
tp1423
tp1424
F1.0
s(I29
(I52
I0
I38
I33
I3
I37
tp1425
tp1426
F1.0
s(I26
(I54
I2
I48
I5
I35
tp1427
tp1428
F1.0
s(I9
(I29
I2
I48
I5
I56
tp1429
tp1430
F1.0
s(I26
(I29
I53
I35
tp1431
tp1432
F1.0
s(I15
(I38
I33
I3
I37
tp1433
tp1434
F1.0
s(I14
(I54
I61
I23
I31
tp1435
tp1436
F1.0
s(I3
(I4
I36
I15
I2
I40
tp1437
tp1438
F1.0
s(I9
I45
tp1439
F1.0
s(I3
I0
tp1440
F1.0
s(I27
I15
tp1441
F1.0
s(I22
(I6
I52
tp1442
tp1443
F1.0
s(I24
(I34
I39
I13
I28
I17
tp1444
tp1445
F1.0
s(I7
(I15
I2
I48
I55
I43
tp1446
tp1447
F1.0
s(I19
I37
tp1448
F1.0
s(I5
(I36
I4
I16
I10
I14
tp1449
tp1450
F1.0
s(I20
I38
tp1451
F1.0
s(I3
I38
tp1452
F1.0
s(I0
(I6
I38
I0
I19
tp1453
tp1454
F1.0
s(I6
I17
tp1455
F1.0
s(I14
I38
tp1456
F1.0
s(I4
I33
tp1457
F1.0
s(I28
I38
tp1458
F1.0
s(I8
I36
tp1459
F1.0
s(I20
(I15
I36
I23
I39
tp1460
tp1461
F1.0
s(I5
I36
tp1462
F1.0
s(I29
I39
tp1463
F1.0
s(I9
I33
tp1464
F1.0
s(I23
I17
tp1465
F1.0
s(I21
I1
tp1466
F1.0
s(I10
I38
tp1467
F1.0
s(I13
(I45
tp1468
tp1469
F1.0
s(I17
I33
tp1470
F1.0
s(I18
I15
tp1471
F1.0
s(I18
I38
tp1472
F1.0
s(I24
(I33
I3
I37
I17
tp1473
tp1474
F1.0
s(I26
(I46
I44
I35
tp1475
tp1476
F1.0
s(I8
I54
tp1477
F1.0
s(I10
I0
tp1478
F1.0
s(I15
I39
tp1479
F1.0
s(I26
(I60
I5
I35
tp1480
tp1481
F1.0
s(I24
(I29
I2
I15
I36
I17
tp1482
tp1483
F1.0
s(I5
(I34
I6
I10
I14
tp1484
tp1485
F1.0
s(I12
I14
tp1486
F1.0
s(I1
(I34
I6
I1
I21
I11
tp1487
tp1488
F1.0
s(I4
(I54
I2
I15
I37
I3
tp1489
tp1490
F1.0
s(I15
I3
tp1491
F1.0
s(I23
(I52
I51
tp1492
tp1493
F1.0
s(I13
I15
tp1494
F1.0
s(I19
I45
tp1495
F1.0
s(I27
(I15
I2
I29
tp1496
tp1497
F1.0
s(I17
(I33
I38
I0
I40
tp1498
tp1499
F1.0
s(I19
(I17
I5
I50
I63
tp1500
tp1501
F1.0
s(I27
I4
tp1502
F1.0
s(I10
(I54
I49
I43
tp1503
tp1504
F1.0
s(I25
I52
tp1505
F1.0
s(I4
I2
tp1506
F1.0
s(I19
I42
tp1507
F1.0
s(I0
I34
tp1508
F1.0
s(I5
I3
tp1509
F1.0
s(I20
I45
tp1510
F1.0
s(I28
(I17
I36
I4
I21
tp1511
tp1512
F1.0
s(I6
I8
tp1513
F1.0
s(I21
I32
tp1514
F1.0
s(I13
(I46
I57
I45
tp1515
tp1516
F1.0
s(I2
I40
tp1517
F1.0
s(I17
I0
tp1518
F1.0
s(I5
I45
tp1519
F1.0
s(I5
(I45
I39
I1
I6
I10
I14
tp1520
tp1521
F1.0
s(I23
I46
tp1522
F1.0
s(I28
(I52
I0
I38
I21
tp1523
tp1524
F1.0
s(I21
I10
tp1525
F1.0
s(I4
I54
tp1526
F1.0
s(I20
(I45
I39
tp1527
tp1528
F1.0
s(I20
(I52
I6
I1
I39
tp1529
tp1530
F1.0
s(I5
I1
tp1531
F1.0
s(I22
I1
tp1532
F1.0
s(I16
I24
tp1533
F1.0
s(I18
I33
tp1534
F1.0
s(I5
(I17
I22
I3
I14
tp1535
tp1536
F1.0
s(I23
I4
tp1537
F1.0
s(I12
I47
tp1538
F1.0
s(I16
I45
tp1539
F1.0
s(I27
(I38
I0
I29
tp1540
tp1541
F1.0
s(I17
I60
tp1542
F1.0
s(I8
I46
tp1543
F1.0
s(I13
I46
tp1544
F1.0
s(I7
(I52
I49
I43
tp1545
tp1546
F1.0
s(I18
(I45
I51
I52
tp1547
tp1548
F1.0
s(I14
I13
tp1549
F1.0
s(I12
I5
tp1550
F1.0
s(I8
(I52
I0
I38
I8
I15
tp1551
tp1552
F1.0
s(I26
I54
tp1553
F1.0
s(I5
(I15
I37
I3
I14
tp1554
tp1555
F1.0
s(I5
(I38
I33
I3
I14
tp1556
tp1557
F1.0
s(I29
(I34
I8
I7
I37
tp1558
tp1559
F1.0
s(I11
I24
tp1560
F1.0
s(I5
(I33
I3
I14
tp1561
tp1562
F1.0
s(I0
I3
tp1563
F1.0
s(I14
I3
tp1564
F1.0
s(I21
I34
tp1565
F1.0
s(I1
I2
tp1566
F1.0
s(I26
(I34
I6
I1
I16
I4
I22
I35
tp1567
tp1568
F1.0
s(I15
I54
tp1569
F1.0
s(I7
(I34
I6
I1
I16
I43
tp1570
tp1571
F1.0
s(I19
I51
tp1572
F1.0
s(I2
I9
tp1573
F1.0
s(I24
I38
tp1574
F1.0
s(I20
I52
tp1575
F1.0
s(I27
I51
tp1576
F1.0
s(I1
I36
tp1577
F1.0
s(I25
I39
tp1578
F1.0
s(I21
I41
tp1579
F1.0
s(I28
I52
tp1580
F1.0
s(I10
(I24
I4
I16
I43
tp1581
tp1582
F1.0
s(I1
(I45
I39
I1
I21
I11
tp1583
tp1584
F1.0
s(I21
I3
tp1585
F1.0
s(I5
I22
tp1586
F1.0
s(I25
(I45
I39
I13
I28
tp1587
tp1588
F1.0
s(I6
(I60
I42
I9
I51
I34
tp1589
tp1590
F1.0
s(I24
(I36
I17
tp1591
tp1592
F1.0
s(I13
I54
tp1593
F1.0
s(I5
I39
tp1594
F1.0
s(I22
I24
tp1595
F1.0
s(I3
(I36
I15
I2
I40
tp1596
tp1597
F1.0
s(I11
I37
tp1598
F1.0
s(I18
I24
tp1599
F1.0
s(I23
I29
tp1600
F1.0
s(I14
(I34
I39
I13
I31
tp1601
tp1602
F1.0
s(I2
I2
tp1603
F1.0
s(I9
(I60
I5
I56
tp1604
tp1605
F1.0
s(I13
I39
tp1606
F1.0
s(I28
(I60
I44
I11
I21
tp1607
tp1608
F1.0
s(I18
I17
tp1609
F1.0
s(I26
I36
tp1610
F1.0
s(I21
(I17
I22
I3
I14
tp1611
tp1612
F1.0
s(I6
(I46
I0
I38
I6
I34
tp1613
tp1614
F1.0
s(I29
I15
tp1615
F1.0
s(I15
I17
tp1616
F1.0
s(I23
(I34
I51
tp1617
tp1618
F1.0
s(I4
(I46
I0
I38
I33
I3
tp1619
tp1620
F1.0
s(I10
(I60
I5
I35
I47
I43
tp1621
tp1622
F1.0
s(I11
I17
tp1623
F1.0
s(I22
(I4
I16
I1
I6
I52
tp1624
tp1625
F1.0
s(I18
I0
tp1626
F1.0
s(I25
I6
tp1627
F1.0
s(I24
(I6
I1
I39
I13
I28
I17
tp1628
tp1629
F1.0
s(I29
I5
tp1630
F1.0
s(I2
I0
tp1631
F1.0
s(I26
I5
tp1632
F1.0
s(I17
(I60
I12
I40
tp1633
tp1634
F1.0
s(I24
I45
tp1635
F1.0
s(I14
I32
tp1636
F1.0
s(I20
I51
tp1637
F1.0
s(I3
I29
tp1638
F1.0
s(I4
I60
tp1639
F1.0
s(I25
I40
tp1640
F1.0
s(I3
(I15
I2
I40
tp1641
tp1642
F1.0
ssS'log_margin'
p1643
F0.1
sS'demands'
p1644
(lp1645
(dp1646
S'query_source'
p1647
I4
sS'item'
p1648
I16
sS'rate'
p1649
F1.0
sS'item_source'
p1650
I23
sS'path'
p1651
(lp1652
I4
aI36
aI23
asa(dp1653
g1647
I4
sg1648
I9
sg1649
F1.0
sg1650
I56
sg1651
(lp1654
I4
aI36
aI48
aI5
aI56
asa(dp1655
g1647
I4
sg1648
I0
sg1649
F1.0
sg1650
I19
sg1651
(lp1656
I4
aI21
aI38
aI0
aI19
asa(dp1657
g1647
I4
sg1648
I10
sg1649
F1.0
sg1650
I43
sg1651
(lp1658
I4
aI16
aI43
asa(dp1659
g1647
I4
sg1648
I22
sg1649
F1.0
sg1650
I52
sg1651
(lp1660
I4
aI16
aI1
aI6
aI52
asa(dp1661
g1647
I4
sg1648
I4
sg1649
F1.0
sg1650
I3
sg1651
(lp1662
I4
aI22
aI3
asa(dp1663
g1647
I4
sg1648
I6
sg1649
F1.0
sg1650
I34
sg1651
(lp1664
I4
aI36
aI15
aI8
aI34
asa(dp1665
g1647
I4
sg1648
I11
sg1649
F1.0
sg1650
I20
sg1651
(lp1666
I4
aI36
aI15
aI37
aI7
aI20
asa(dp1667
g1647
I4
sg1648
I21
sg1649
F1.0
sg1650
I14
sg1651
(lp1668
I4
aI16
aI10
aI14
asa(dp1669
g1647
I4
sg1648
I8
sg1649
F1.0
sg1650
I15
sg1651
(lp1670
I4
aI36
aI15
asa(dp1671
g1647
I4
sg1648
I5
sg1649
F1.0
sg1650
I14
sg1651
(lp1672
I4
aI16
aI10
aI14
asa(dp1673
g1647
I4
sg1648
I25
sg1649
F1.0
sg1650
I28
sg1651
(lp1674
I4
aI36
aI17
aI28
asa(dp1675
g1647
I4
sg1648
I3
sg1649
F1.0
sg1650
I40
sg1651
(lp1676
I4
aI36
aI15
aI2
aI40
asa(dp1677
g1647
I4
sg1648
I24
sg1649
F1.0
sg1650
I17
sg1651
(lp1678
I4
aI36
aI17
asa(dp1679
g1647
I4
sg1648
I14
sg1649
F1.0
sg1650
I31
sg1651
(lp1680
I4
aI36
aI17
aI31
asa(dp1681
g1647
I4
sg1648
I28
sg1649
F1.0
sg1650
I21
sg1651
(lp1682
I4
aI21
asa(dp1683
g1647
I4
sg1648
I15
sg1649
F1.0
sg1650
I37
sg1651
(lp1684
I4
aI36
aI15
aI37
asa(dp1685
g1647
I4
sg1648
I26
sg1649
F1.0
sg1650
I35
sg1651
(lp1686
I4
aI22
aI35
asa(dp1687
g1647
I4
sg1648
I20
sg1649
F1.0
sg1650
I39
sg1651
(lp1688
I4
aI36
aI23
aI39
asa(dp1689
g1647
I4
sg1648
I27
sg1649
F1.0
sg1650
I29
sg1651
(lp1690
I4
aI55
aI29
asa(dp1691
g1647
I4
sg1648
I13
sg1649
F1.0
sg1650
I45
sg1651
(lp1692
I4
aI36
aI48
aI57
aI45
asa(dp1693
g1647
I4
sg1648
I12
sg1649
F1.0
sg1650
I58
sg1651
(lp1694
I4
aI16
aI58
asa(dp1695
g1647
I4
sg1648
I17
sg1649
F1.0
sg1650
I40
sg1651
(lp1696
I4
aI36
aI15
aI2
aI40
asa(dp1697
g1647
I4
sg1648
I29
sg1649
F1.0
sg1650
I37
sg1651
(lp1698
I4
aI36
aI15
aI37
asa(dp1699
g1647
I4
sg1648
I18
sg1649
F1.0
sg1650
I52
sg1651
(lp1700
I4
aI16
aI1
aI6
aI52
asa(dp1701
g1647
I4
sg1648
I1
sg1649
F1.0
sg1650
I11
sg1651
(lp1702
I4
aI21
aI11
asa(dp1703
g1647
I4
sg1648
I23
sg1649
F1.0
sg1650
I51
sg1651
(lp1704
I4
aI36
aI15
aI2
aI40
aI51
asa(dp1705
g1647
I4
sg1648
I2
sg1649
F1.0
sg1650
I50
sg1651
(lp1706
I4
aI36
aI15
aI2
aI50
asa(dp1707
g1647
I4
sg1648
I7
sg1649
F1.0
sg1650
I43
sg1651
(lp1708
I4
aI16
aI43
asa(dp1709
g1647
I4
sg1648
I19
sg1649
F1.0
sg1650
I63
sg1651
(lp1710
I4
aI36
aI15
aI2
aI50
aI63
asa(dp1711
g1647
I33
sg1648
I6
sg1649
F1.0
sg1650
I34
sg1651
(lp1712
I33
aI38
aI6
aI34
asa(dp1713
g1647
I33
sg1648
I7
sg1649
F1.0
sg1650
I43
sg1651
(lp1714
I33
aI3
aI14
aI41
aI47
aI43
asa(dp1715
g1647
I33
sg1648
I18
sg1649
F1.0
sg1650
I52
sg1651
(lp1716
I33
aI38
aI0
aI52
asa(dp1717
g1647
I33
sg1648
I11
sg1649
F1.0
sg1650
I20
sg1651
(lp1718
I33
aI7
aI20
asa(dp1719
g1647
I33
sg1648
I9
sg1649
F1.0
sg1650
I56
sg1651
(lp1720
I33
aI3
aI37
aI17
aI5
aI56
asa(dp1721
g1647
I33
sg1648
I14
sg1649
F1.0
sg1650
I31
sg1651
(lp1722
I33
aI3
aI37
aI17
aI31
asa(dp1723
g1647
I33
sg1648
I17
sg1649
F1.0
sg1650
I40
sg1651
(lp1724
I33
aI38
aI0
aI40
asa(dp1725
g1647
I33
sg1648
I20
sg1649
F1.0
sg1650
I39
sg1651
(lp1726
I33
aI38
aI6
aI1
aI39
asa(dp1727
g1647
I33
sg1648
I5
sg1649
F1.0
sg1650
I14
sg1651
(lp1728
I33
aI3
aI14
asa(dp1729
g1647
I33
sg1648
I25
sg1649
F1.0
sg1650
I28
sg1651
(lp1730
I33
aI7
aI28
asa(dp1731
g1647
I33
sg1648
I10
sg1649
F1.0
sg1650
I43
sg1651
(lp1732
I33
aI3
aI14
aI41
aI47
aI43
asa(dp1733
g1647
I33
sg1648
I27
sg1649
F1.0
sg1650
I29
sg1651
(lp1734
I33
aI3
aI53
aI29
asa(dp1735
g1647
I33
sg1648
I16
sg1649
F1.0
sg1650
I23
sg1651
(lp1736
I33
aI3
aI37
aI15
aI36
aI23
asa(dp1737
g1647
I33
sg1648
I1
sg1649
F1.0
sg1650
I11
sg1651
(lp1738
I33
aI11
asa(dp1739
g1647
I33
sg1648
I3
sg1649
F1.0
sg1650
I40
sg1651
(lp1740
I33
aI38
aI0
aI40
asa(dp1741
g1647
I33
sg1648
I4
sg1649
F1.0
sg1650
I3
sg1651
(lp1742
I33
aI3
asa(dp1743
g1647
I33
sg1648
I24
sg1649
F1.0
sg1650
I17
sg1651
(lp1744
I33
aI3
aI37
aI17
asa(dp1745
g1647
I33
sg1648
I29
sg1649
F1.0
sg1650
I37
sg1651
(lp1746
I33
aI3
aI37
asa(dp1747
g1647
I33
sg1648
I19
sg1649
F1.0
sg1650
I63
sg1651
(lp1748
I33
aI3
aI37
aI50
aI63
asa(dp1749
g1647
I33
sg1648
I21
sg1649
F1.0
sg1650
I14
sg1651
(lp1750
I33
aI3
aI14
asa(dp1751
g1647
I33
sg1648
I15
sg1649
F1.0
sg1650
I37
sg1651
(lp1752
I33
aI3
aI37
asa(dp1753
g1647
I33
sg1648
I28
sg1649
F1.0
sg1650
I21
sg1651
(lp1754
I33
aI38
aI21
asa(dp1755
g1647
I33
sg1648
I0
sg1649
F1.0
sg1650
I19
sg1651
(lp1756
I33
aI19
asa(dp1757
g1647
I33
sg1648
I8
sg1649
F1.0
sg1650
I15
sg1651
(lp1758
I33
aI3
aI37
aI15
asa(dp1759
g1647
I33
sg1648
I23
sg1649
F1.0
sg1650
I51
sg1651
(lp1760
I33
aI38
aI0
aI40
aI51
asa(dp1761
g1647
I33
sg1648
I12
sg1649
F1.0
sg1650
I58
sg1651
(lp1762
I33
aI3
aI14
aI58
asa(dp1763
g1647
I33
sg1648
I22
sg1649
F1.0
sg1650
I52
sg1651
(lp1764
I33
aI38
aI0
aI52
asa(dp1765
g1647
I33
sg1648
I2
sg1649
F1.0
sg1650
I50
sg1651
(lp1766
I33
aI3
aI37
aI50
asa(dp1767
g1647
I33
sg1648
I26
sg1649
F1.0
sg1650
I35
sg1651
(lp1768
I33
aI3
aI53
aI35
asa(dp1769
g1647
I33
sg1648
I13
sg1649
F1.0
sg1650
I45
sg1651
(lp1770
I33
aI38
aI0
aI40
aI51
aI45
asa(dp1771
g1647
I6
sg1648
I14
sg1649
F1.0
sg1650
I31
sg1651
(lp1772
I6
aI1
aI39
aI13
aI31
asa(dp1773
g1647
I6
sg1648
I7
sg1649
F1.0
sg1650
I43
sg1651
(lp1774
I6
aI1
aI16
aI43
asa(dp1775
g1647
I6
sg1648
I24
sg1649
F1.0
sg1650
I17
sg1651
(lp1776
I6
aI1
aI39
aI13
aI28
aI17
asa(dp1777
g1647
I6
sg1648
I8
sg1649
F1.0
sg1650
I15
sg1651
(lp1778
I6
aI34
aI8
aI15
asa(dp1779
g1647
I6
sg1648
I26
sg1649
F1.0
sg1650
I35
sg1651
(lp1780
I6
aI1
aI16
aI4
aI22
aI35
asa(dp1781
g1647
I6
sg1648
I1
sg1649
F1.0
sg1650
I11
sg1651
(lp1782
I6
aI1
aI21
aI11
asa(dp1783
g1647
I6
sg1648
I19
sg1649
F1.0
sg1650
I63
sg1651
(lp1784
I6
aI34
aI51
aI9
aI63
asa(dp1785
g1647
I6
sg1648
I29
sg1649
F1.0
sg1650
I37
sg1651
(lp1786
I6
aI34
aI8
aI7
aI37
asa(dp1787
g1647
I6
sg1648
I13
sg1649
F1.0
sg1650
I45
sg1651
(lp1788
I6
aI1
aI39
aI45
asa(dp1789
g1647
I6
sg1648
I16
sg1649
F1.0
sg1650
I23
sg1651
(lp1790
I6
aI1
aI39
aI23
asa(dp1791
g1647
I6
sg1648
I28
sg1649
F1.0
sg1650
I21
sg1651
(lp1792
I6
aI1
aI21
asa(dp1793
g1647
I6
sg1648
I23
sg1649
F1.0
sg1650
I51
sg1651
(lp1794
I6
aI34
aI51
asa(dp1795
g1647
I6
sg1648
I12
sg1649
F1.0
sg1650
I58
sg1651
(lp1796
I6
aI1
aI16
aI58
asa(dp1797
g1647
I6
sg1648
I11
sg1649
F1.0
sg1650
I20
sg1651
(lp1798
I6
aI34
aI20
asa(dp1799
g1647
I6
sg1648
I25
sg1649
F1.0
sg1650
I28
sg1651
(lp1800
I6
aI1
aI39
aI13
aI28
asa(dp1801
g1647
I6
sg1648
I22
sg1649
F1.0
sg1650
I52
sg1651
(lp1802
I6
aI52
asa(dp1803
g1647
I6
sg1648
I17
sg1649
F1.0
sg1650
I40
sg1651
(lp1804
I6
aI34
aI8
aI40
asa(dp1805
g1647
I6
sg1648
I18
sg1649
F1.0
sg1650
I52
sg1651
(lp1806
I6
aI52
asa(dp1807
g1647
I6
sg1648
I15
sg1649
F1.0
sg1650
I37
sg1651
(lp1808
I6
aI34
aI8
aI7
aI37
asa(dp1809
g1647
I6
sg1648
I6
sg1649
F1.0
sg1650
I34
sg1651
(lp1810
I6
aI34
asa(dp1811
g1647
I6
sg1648
I10
sg1649
F1.0
sg1650
I43
sg1651
(lp1812
I6
aI1
aI16
aI43
asa(dp1813
g1647
I6
sg1648
I0
sg1649
F1.0
sg1650
I19
sg1651
(lp1814
I6
aI38
aI0
aI19
asa(dp1815
g1647
I6
sg1648
I4
sg1649
F1.0
sg1650
I3
sg1651
(lp1816
I6
aI38
aI33
aI3
asa(dp1817
g1647
I6
sg1648
I21
sg1649
F1.0
sg1650
I14
sg1651
(lp1818
I6
aI10
aI14
asa(dp1819
g1647
I6
sg1648
I3
sg1649
F1.0
sg1650
I40
sg1651
(lp1820
I6
aI34
aI8
aI40
asa(dp1821
g1647
I6
sg1648
I27
sg1649
F1.0
sg1650
I29
sg1651
(lp1822
I6
aI38
aI0
aI29
asa(dp1823
g1647
I6
sg1648
I5
sg1649
F1.0
sg1650
I14
sg1651
(lp1824
I6
aI10
aI14
asa(dp1825
g1647
I6
sg1648
I9
sg1649
F1.0
sg1650
I56
sg1651
(lp1826
I6
aI1
aI39
aI45
aI42
aI56
asa(dp1827
g1647
I6
sg1648
I2
sg1649
F1.0
sg1650
I50
sg1651
(lp1828
I6
aI34
aI8
aI7
aI37
aI50
asa(dp1829
g1647
I6
sg1648
I20
sg1649
F1.0
sg1650
I39
sg1651
(lp1830
I6
aI1
aI39
asa(dp1831
g1647
I52
sg1648
I25
sg1649
F1.0
sg1650
I28
sg1651
(lp1832
I52
aI0
aI38
aI33
aI7
aI28
asa(dp1833
g1647
I52
sg1648
I18
sg1649
F1.0
sg1650
I52
sg1651
(lp1834
I52
asa(dp1835
g1647
I52
sg1648
I16
sg1649
F1.0
sg1650
I23
sg1651
(lp1836
I52
aI6
aI1
aI39
aI23
asa(dp1837
g1647
I52
sg1648
I3
sg1649
F1.0
sg1650
I40
sg1651
(lp1838
I52
aI0
aI40
asa(dp1839
g1647
I52
sg1648
I5
sg1649
F1.0
sg1650
I14
sg1651
(lp1840
I52
aI32
aI18
aI14
asa(dp1841
g1647
I52
sg1648
I10
sg1649
F1.0
sg1650
I43
sg1651
(lp1842
I52
aI49
aI43
asa(dp1843
g1647
I52
sg1648
I14
sg1649
F1.0
sg1650
I31
sg1651
(lp1844
I52
aI32
aI9
aI42
aI13
aI31
asa(dp1845
g1647
I52
sg1648
I19
sg1649
F1.0
sg1650
I63
sg1651
(lp1846
I52
aI32
aI9
aI63
asa(dp1847
g1647
I52
sg1648
I27
sg1649
F1.0
sg1650
I29
sg1651
(lp1848
I52
aI0
aI29
asa(dp1849
g1647
I52
sg1648
I26
sg1649
F1.0
sg1650
I35
sg1651
(lp1850
I52
aI0
aI46
aI44
aI35
asa(dp1851
g1647
I52
sg1648
I22
sg1649
F1.0
sg1650
I52
sg1651
(lp1852
I52
asa(dp1853
g1647
I52
sg1648
I15
sg1649
F1.0
sg1650
I37
sg1651
(lp1854
I52
aI0
aI38
aI33
aI3
aI37
asa(dp1855
g1647
I52
sg1648
I1
sg1649
F1.0
sg1650
I11
sg1651
(lp1856
I52
aI0
aI38
aI33
aI11
asa(dp1857
g1647
I52
sg1648
I8
sg1649
F1.0
sg1650
I15
sg1651
(lp1858
I52
aI0
aI38
aI8
aI15
asa(dp1859
g1647
I52
sg1648
I17
sg1649
F1.0
sg1650
I40
sg1651
(lp1860
I52
aI0
aI40
asa(dp1861
g1647
I52
sg1648
I12
sg1649
F1.0
sg1650
I58
sg1651
(lp1862
I52
aI32
aI18
aI14
aI58
asa(dp1863
g1647
I52
sg1648
I29
sg1649
F1.0
sg1650
I37
sg1651
(lp1864
I52
aI0
aI38
aI33
aI3
aI37
asa(dp1865
g1647
I52
sg1648
I6
sg1649
F1.0
sg1650
I34
sg1651
(lp1866
I52
aI6
aI34
asa(dp1867
g1647
I52
sg1648
I4
sg1649
F1.0
sg1650
I3
sg1651
(lp1868
I52
aI0
aI38
aI33
aI3
asa(dp1869
g1647
I52
sg1648
I11
sg1649
F1.0
sg1650
I20
sg1651
(lp1870
I52
aI32
aI9
aI20
asa(dp1871
g1647
I52
sg1648
I24
sg1649
F1.0
sg1650
I17
sg1651
(lp1872
I52
aI0
aI38
aI33
aI3
aI37
aI17
asa(dp1873
g1647
I52
sg1648
I7
sg1649
F1.0
sg1650
I43
sg1651
(lp1874
I52
aI49
aI43
asa(dp1875
g1647
I52
sg1648
I13
sg1649
F1.0
sg1650
I45
sg1651
(lp1876
I52
aI51
aI45
asa(dp1877
g1647
I52
sg1648
I2
sg1649
F1.0
sg1650
I50
sg1651
(lp1878
I52
aI0
aI40
aI2
aI50
asa(dp1879
g1647
I52
sg1648
I28
sg1649
F1.0
sg1650
I21
sg1651
(lp1880
I52
aI0
aI38
aI21
asa(dp1881
g1647
I52
sg1648
I20
sg1649
F1.0
sg1650
I39
sg1651
(lp1882
I52
aI6
aI1
aI39
asa(dp1883
g1647
I52
sg1648
I0
sg1649
F1.0
sg1650
I19
sg1651
(lp1884
I52
aI0
aI19
asa(dp1885
g1647
I52
sg1648
I21
sg1649
F1.0
sg1650
I14
sg1651
(lp1886
I52
aI32
aI18
aI14
asa(dp1887
g1647
I52
sg1648
I9
sg1649
F1.0
sg1650
I56
sg1651
(lp1888
I52
aI32
aI9
aI42
aI56
asa(dp1889
g1647
I52
sg1648
I23
sg1649
F1.0
sg1650
I51
sg1651
(lp1890
I52
aI51
asa(dp1891
g1647
I60
sg1648
I12
sg1649
F1.0
sg1650
I58
sg1651
(lp1892
I60
aI5
aI35
aI47
aI58
asa(dp1893
g1647
I60
sg1648
I4
sg1649
F1.0
sg1650
I3
sg1651
(lp1894
I60
aI5
aI35
aI53
aI3
asa(dp1895
g1647
I60
sg1648
I9
sg1649
F1.0
sg1650
I56
sg1651
(lp1896
I60
aI5
aI56
asa(dp1897
g1647
I60
sg1648
I7
sg1649
F1.0
sg1650
I43
sg1651
(lp1898
I60
aI5
aI35
aI47
aI43
asa(dp1899
g1647
I60
sg1648
I22
sg1649
F1.0
sg1650
I52
sg1651
(lp1900
I60
aI44
aI46
aI0
aI52
asa(dp1901
g1647
I60
sg1648
I2
sg1649
F1.0
sg1650
I50
sg1651
(lp1902
I60
aI5
aI50
asa(dp1903
g1647
I60
sg1648
I11
sg1649
F1.0
sg1650
I20
sg1651
(lp1904
I60
aI42
aI9
aI20
asa(dp1905
g1647
I60
sg1648
I19
sg1649
F1.0
sg1650
I63
sg1651
(lp1906
I60
aI5
aI50
aI63
asa(dp1907
g1647
I60
sg1648
I3
sg1649
F1.0
sg1650
I40
sg1651
(lp1908
I60
aI12
aI40
asa(dp1909
g1647
I60
sg1648
I0
sg1649
F1.0
sg1650
I19
sg1651
(lp1910
I60
aI44
aI19
asa(dp1911
g1647
I60
sg1648
I29
sg1649
F1.0
sg1650
I37
sg1651
(lp1912
I60
aI5
aI17
aI37
asa(dp1913
g1647
I60
sg1648
I27
sg1649
F1.0
sg1650
I29
sg1651
(lp1914
I60
aI5
aI35
aI53
aI29
asa(dp1915
g1647
I60
sg1648
I28
sg1649
F1.0
sg1650
I21
sg1651
(lp1916
I60
aI44
aI11
aI21
asa(dp1917
g1647
I60
sg1648
I5
sg1649
F1.0
sg1650
I14
sg1651
(lp1918
I60
aI5
aI35
aI47
aI41
aI14
asa(dp1919
g1647
I60
sg1648
I8
sg1649
F1.0
sg1650
I15
sg1651
(lp1920
I60
aI5
aI48
aI2
aI15
asa(dp1921
g1647
I60
sg1648
I13
sg1649
F1.0
sg1650
I45
sg1651
(lp1922
I60
aI42
aI45
asa(dp1923
g1647
I60
sg1648
I14
sg1649
F1.0
sg1650
I31
sg1651
(lp1924
I60
aI5
aI17
aI31
asa(dp1925
g1647
I60
sg1648
I21
sg1649
F1.0
sg1650
I14
sg1651
(lp1926
I60
aI5
aI35
aI47
aI41
aI14
asa(dp1927
g1647
I60
sg1648
I24
sg1649
F1.0
sg1650
I17
sg1651
(lp1928
I60
aI5
aI17
asa(dp1929
g1647
I60
sg1648
I15
sg1649
F1.0
sg1650
I37
sg1651
(lp1930
I60
aI5
aI17
aI37
asa(dp1931
g1647
I60
sg1648
I16
sg1649
F1.0
sg1650
I23
sg1651
(lp1932
I60
aI5
aI48
aI36
aI23
asa(dp1933
g1647
I60
sg1648
I10
sg1649
F1.0
sg1650
I43
sg1651
(lp1934
I60
aI5
aI35
aI47
aI43
asa(dp1935
g1647
I60
sg1648
I1
sg1649
F1.0
sg1650
I11
sg1651
(lp1936
I60
aI44
aI11
asa(dp1937
g1647
I60
sg1648
I6
sg1649
F1.0
sg1650
I34
sg1651
(lp1938
I60
aI42
aI9
aI51
aI34
asa(dp1939
g1647
I60
sg1648
I20
sg1649
F1.0
sg1650
I39
sg1651
(lp1940
I60
aI42
aI13
aI39
asa(dp1941
g1647
I60
sg1648
I18
sg1649
F1.0
sg1650
I52
sg1651
(lp1942
I60
aI44
aI46
aI0
aI52
asa(dp1943
g1647
I60
sg1648
I25
sg1649
F1.0
sg1650
I28
sg1651
(lp1944
I60
aI28
asa(dp1945
g1647
I60
sg1648
I17
sg1649
F1.0
sg1650
I40
sg1651
(lp1946
I60
aI12
aI40
asa(dp1947
g1647
I60
sg1648
I26
sg1649
F1.0
sg1650
I35
sg1651
(lp1948
I60
aI5
aI35
asa(dp1949
g1647
I60
sg1648
I23
sg1649
F1.0
sg1650
I51
sg1651
(lp1950
I60
aI42
aI9
aI51
asa(dp1951
g1647
I46
sg1648
I28
sg1649
F1.0
sg1650
I21
sg1651
(lp1952
I46
aI21
asa(dp1953
g1647
I46
sg1648
I23
sg1649
F1.0
sg1650
I51
sg1651
(lp1954
I46
aI0
aI40
aI51
asa(dp1955
g1647
I46
sg1648
I16
sg1649
F1.0
sg1650
I23
sg1651
(lp1956
I46
aI21
aI1
aI39
aI23
asa(dp1957
g1647
I46
sg1648
I0
sg1649
F1.0
sg1650
I19
sg1651
(lp1958
I46
aI0
aI19
asa(dp1959
g1647
I46
sg1648
I19
sg1649
F1.0
sg1650
I63
sg1651
(lp1960
I46
aI0
aI40
aI2
aI50
aI63
asa(dp1961
g1647
I46
sg1648
I17
sg1649
F1.0
sg1650
I40
sg1651
(lp1962
I46
aI0
aI40
asa(dp1963
g1647
I46
sg1648
I3
sg1649
F1.0
sg1650
I40
sg1651
(lp1964
I46
aI0
aI40
asa(dp1965
g1647
I46
sg1648
I10
sg1649
F1.0
sg1650
I43
sg1651
(lp1966
I46
aI55
aI43
asa(dp1967
g1647
I46
sg1648
I1
sg1649
F1.0
sg1650
I11
sg1651
(lp1968
I46
aI44
aI11
asa(dp1969
g1647
I46
sg1648
I29
sg1649
F1.0
sg1650
I37
sg1651
(lp1970
I46
aI0
aI38
aI33
aI3
aI37
asa(dp1971
g1647
I46
sg1648
I18
sg1649
F1.0
sg1650
I52
sg1651
(lp1972
I46
aI0
aI52
asa(dp1973
g1647
I46
sg1648
I14
sg1649
F1.0
sg1650
I31
sg1651
(lp1974
I46
aI44
aI35
aI5
aI17
aI31
asa(dp1975
g1647
I46
sg1648
I21
sg1649
F1.0
sg1650
I14
sg1651
(lp1976
I46
aI0
aI38
aI33
aI3
aI14
asa(dp1977
g1647
I46
sg1648
I26
sg1649
F1.0
sg1650
I35
sg1651
(lp1978
I46
aI44
aI35
asa(dp1979
g1647
I46
sg1648
I2
sg1649
F1.0
sg1650
I50
sg1651
(lp1980
I46
aI0
aI40
aI2
aI50
asa(dp1981
g1647
I46
sg1648
I5
sg1649
F1.0
sg1650
I14
sg1651
(lp1982
I46
aI0
aI38
aI33
aI3
aI14
asa(dp1983
g1647
I46
sg1648
I9
sg1649
F1.0
sg1650
I56
sg1651
(lp1984
I46
aI44
aI35
aI5
aI56
asa(dp1985
g1647
I46
sg1648
I15
sg1649
F1.0
sg1650
I37
sg1651
(lp1986
I46
aI0
aI38
aI33
aI3
aI37
asa(dp1987
g1647
I46
sg1648
I11
sg1649
F1.0
sg1650
I20
sg1651
(lp1988
I46
aI0
aI38
aI33
aI7
aI20
asa(dp1989
g1647
I46
sg1648
I7
sg1649
F1.0
sg1650
I43
sg1651
(lp1990
I46
aI55
aI43
asa(dp1991
g1647
I46
sg1648
I24
sg1649
F1.0
sg1650
I17
sg1651
(lp1992
I46
aI44
aI35
aI5
aI17
asa(dp1993
g1647
I46
sg1648
I25
sg1649
F1.0
sg1650
I28
sg1651
(lp1994
I46
aI44
aI11
aI28
asa(dp1995
g1647
I46
sg1648
I4
sg1649
F1.0
sg1650
I3
sg1651
(lp1996
I46
aI0
aI38
aI33
aI3
asa(dp1997
g1647
I46
sg1648
I20
sg1649
F1.0
sg1650
I39
sg1651
(lp1998
I46
aI21
aI1
aI39
asa(dp1999
g1647
I46
sg1648
I8
sg1649
F1.0
sg1650
I15
sg1651
(lp2000
I46
aI0
aI38
aI8
aI15
asa(dp2001
g1647
I46
sg1648
I12
sg1649
F1.0
sg1650
I58
sg1651
(lp2002
I46
aI44
aI35
aI47
aI58
asa(dp2003
g1647
I46
sg1648
I6
sg1649
F1.0
sg1650
I34
sg1651
(lp2004
I46
aI0
aI38
aI6
aI34
asa(dp2005
g1647
I46
sg1648
I13
sg1649
F1.0
sg1650
I45
sg1651
(lp2006
I46
aI57
aI45
asa(dp2007
g1647
I46
sg1648
I22
sg1649
F1.0
sg1650
I52
sg1651
(lp2008
I46
aI0
aI52
asa(dp2009
g1647
I46
sg1648
I27
sg1649
F1.0
sg1650
I29
sg1651
(lp2010
I46
aI0
aI29
asa(dp2011
g1647
I29
sg1648
I21
sg1649
F1.0
sg1650
I14
sg1651
(lp2012
I29
aI49
aI41
aI14
asa(dp2013
g1647
I29
sg1648
I13
sg1649
F1.0
sg1650
I45
sg1651
(lp2014
I29
aI0
aI40
aI51
aI45
asa(dp2015
g1647
I29
sg1648
I27
sg1649
F1.0
sg1650
I29
sg1651
(lp2016
I29
asa(dp2017
g1647
I29
sg1648
I12
sg1649
F1.0
sg1650
I58
sg1651
(lp2018
I29
aI49
aI41
aI14
aI58
asa(dp2019
g1647
I29
sg1648
I22
sg1649
F1.0
sg1650
I52
sg1651
(lp2020
I29
aI0
aI52
asa(dp2021
g1647
I29
sg1648
I1
sg1649
F1.0
sg1650
I11
sg1651
(lp2022
I29
aI0
aI38
aI33
aI11
asa(dp2023
g1647
I29
sg1648
I5
sg1649
F1.0
sg1650
I14
sg1651
(lp2024
I29
aI49
aI41
aI14
asa(dp2025
g1647
I29
sg1648
I14
sg1649
F1.0
sg1650
I31
sg1651
(lp2026
I29
aI2
aI15
aI36
aI17
aI31
asa(dp2027
g1647
I29
sg1648
I26
sg1649
F1.0
sg1650
I35
sg1651
(lp2028
I29
aI53
aI35
asa(dp2029
g1647
I29
sg1648
I7
sg1649
F1.0
sg1650
I43
sg1651
(lp2030
I29
aI49
aI43
asa(dp2031
g1647
I29
sg1648
I6
sg1649
F1.0
sg1650
I34
sg1651
(lp2032
I29
aI0
aI38
aI6
aI34
asa(dp2033
g1647
I29
sg1648
I11
sg1649
F1.0
sg1650
I20
sg1651
(lp2034
I29
aI0
aI38
aI33
aI7
aI20
asa(dp2035
g1647
I29
sg1648
I0
sg1649
F1.0
sg1650
I19
sg1651
(lp2036
I29
aI0
aI19
asa(dp2037
g1647
I29
sg1648
I10
sg1649
F1.0
sg1650
I43
sg1651
(lp2038
I29
aI49
aI43
asa(dp2039
g1647
I29
sg1648
I29
sg1649
F1.0
sg1650
I37
sg1651
(lp2040
I29
aI2
aI15
aI37
asa(dp2041
g1647
I29
sg1648
I25
sg1649
F1.0
sg1650
I28
sg1651
(lp2042
I29
aI0
aI38
aI33
aI7
aI28
asa(dp2043
g1647
I29
sg1648
I8
sg1649
F1.0
sg1650
I15
sg1651
(lp2044
I29
aI2
aI15
asa(dp2045
g1647
I29
sg1648
I19
sg1649
F1.0
sg1650
I63
sg1651
(lp2046
I29
aI2
aI50
aI63
asa(dp2047
g1647
I29
sg1648
I24
sg1649
F1.0
sg1650
I17
sg1651
(lp2048
I29
aI2
aI15
aI36
aI17
asa(dp2049
g1647
I29
sg1648
I17
sg1649
F1.0
sg1650
I40
sg1651
(lp2050
I29
aI0
aI40
asa(dp2051
g1647
I29
sg1648
I15
sg1649
F1.0
sg1650
I37
sg1651
(lp2052
I29
aI2
aI15
aI37
asa(dp2053
g1647
I29
sg1648
I2
sg1649
F1.0
sg1650
I50
sg1651
(lp2054
I29
aI2
aI50
asa(dp2055
g1647
I29
sg1648
I18
sg1649
F1.0
sg1650
I52
sg1651
(lp2056
I29
aI0
aI52
asa(dp2057
g1647
I29
sg1648
I28
sg1649
F1.0
sg1650
I21
sg1651
(lp2058
I29
aI0
aI38
aI21
asa(dp2059
g1647
I29
sg1648
I3
sg1649
F1.0
sg1650
I40
sg1651
(lp2060
I29
aI0
aI40
asa(dp2061
g1647
I29
sg1648
I4
sg1649
F1.0
sg1650
I3
sg1651
(lp2062
I29
aI53
aI3
asa(dp2063
g1647
I29
sg1648
I9
sg1649
F1.0
sg1650
I56
sg1651
(lp2064
I29
aI2
aI48
aI5
aI56
asa(dp2065
g1647
I29
sg1648
I23
sg1649
F1.0
sg1650
I51
sg1651
(lp2066
I29
aI0
aI40
aI51
asa(dp2067
g1647
I29
sg1648
I16
sg1649
F1.0
sg1650
I23
sg1651
(lp2068
I29
aI2
aI15
aI36
aI23
asa(dp2069
g1647
I29
sg1648
I20
sg1649
F1.0
sg1650
I39
sg1651
(lp2070
I29
aI0
aI38
aI6
aI1
aI39
asa(dp2071
g1647
I45
sg1648
I25
sg1649
F1.0
sg1650
I28
sg1651
(lp2072
I45
aI39
aI13
aI28
asa(dp2073
g1647
I45
sg1648
I26
sg1649
F1.0
sg1650
I35
sg1651
(lp2074
I45
aI42
aI56
aI5
aI35
asa(dp2075
g1647
I45
sg1648
I15
sg1649
F1.0
sg1650
I37
sg1651
(lp2076
I45
aI39
aI34
aI8
aI7
aI37
asa(dp2077
g1647
I45
sg1648
I27
sg1649
F1.0
sg1650
I29
sg1651
(lp2078
I45
aI51
aI40
aI0
aI29
asa(dp2079
g1647
I45
sg1648
I12
sg1649
F1.0
sg1650
I58
sg1651
(lp2080
I45
aI39
aI1
aI16
aI58
asa(dp2081
g1647
I45
sg1648
I18
sg1649
F1.0
sg1650
I52
sg1651
(lp2082
I45
aI51
aI52
asa(dp2083
g1647
I45
sg1648
I10
sg1649
F1.0
sg1650
I43
sg1651
(lp2084
I45
aI59
aI43
asa(dp2085
g1647
I45
sg1648
I6
sg1649
F1.0
sg1650
I34
sg1651
(lp2086
I45
aI39
aI34
asa(dp2087
g1647
I45
sg1648
I24
sg1649
F1.0
sg1650
I17
sg1651
(lp2088
I45
aI39
aI13
aI28
aI17
asa(dp2089
g1647
I45
sg1648
I4
sg1649
F1.0
sg1650
I3
sg1651
(lp2090
I45
aI39
aI1
aI6
aI38
aI33
aI3
asa(dp2091
g1647
I45
sg1648
I9
sg1649
F1.0
sg1650
I56
sg1651
(lp2092
I45
aI42
aI56
asa(dp2093
g1647
I45
sg1648
I28
sg1649
F1.0
sg1650
I21
sg1651
(lp2094
I45
aI39
aI1
aI21
asa(dp2095
g1647
I45
sg1648
I14
sg1649
F1.0
sg1650
I31
sg1651
(lp2096
I45
aI39
aI13
aI31
asa(dp2097
g1647
I45
sg1648
I29
sg1649
F1.0
sg1650
I37
sg1651
(lp2098
I45
aI39
aI34
aI8
aI7
aI37
asa(dp2099
g1647
I45
sg1648
I3
sg1649
F1.0
sg1650
I40
sg1651
(lp2100
I45
aI51
aI40
asa(dp2101
g1647
I45
sg1648
I7
sg1649
F1.0
sg1650
I43
sg1651
(lp2102
I45
aI59
aI43
asa(dp2103
g1647
I45
sg1648
I13
sg1649
F1.0
sg1650
I45
sg1651
(lp2104
I45
asa(dp2105
g1647
I45
sg1648
I8
sg1649
F1.0
sg1650
I15
sg1651
(lp2106
I45
aI39
aI34
aI8
aI15
asa(dp2107
g1647
I45
sg1648
I5
sg1649
F1.0
sg1650
I14
sg1651
(lp2108
I45
aI39
aI1
aI6
aI10
aI14
asa(dp2109
g1647
I45
sg1648
I21
sg1649
F1.0
sg1650
I14
sg1651
(lp2110
I45
aI39
aI1
aI6
aI10
aI14
asa(dp2111
g1647
I45
sg1648
I16
sg1649
F1.0
sg1650
I23
sg1651
(lp2112
I45
aI39
aI23
asa(dp2113
g1647
I45
sg1648
I17
sg1649
F1.0
sg1650
I40
sg1651
(lp2114
I45
aI51
aI40
asa(dp2115
g1647
I45
sg1648
I22
sg1649
F1.0
sg1650
I52
sg1651
(lp2116
I45
aI51
aI52
asa(dp2117
g1647
I45
sg1648
I0
sg1649
F1.0
sg1650
I19
sg1651
(lp2118
I45
aI42
aI9
aI32
aI19
asa(dp2119
g1647
I45
sg1648
I20
sg1649
F1.0
sg1650
I39
sg1651
(lp2120
I45
aI39
asa(dp2121
g1647
I45
sg1648
I19
sg1649
F1.0
sg1650
I63
sg1651
(lp2122
I45
aI42
aI9
aI63
asa(dp2123
g1647
I45
sg1648
I23
sg1649
F1.0
sg1650
I51
sg1651
(lp2124
I45
aI51
asa(dp2125
g1647
I45
sg1648
I1
sg1649
F1.0
sg1650
I11
sg1651
(lp2126
I45
aI39
aI1
aI21
aI11
asa(dp2127
g1647
I45
sg1648
I11
sg1649
F1.0
sg1650
I20
sg1651
(lp2128
I45
aI39
aI34
aI20
asa(dp2129
g1647
I45
sg1648
I2
sg1649
F1.0
sg1650
I50
sg1651
(lp2130
I45
aI42
aI9
aI12
aI50
asa(dp2131
g1647
I36
sg1648
I28
sg1649
F1.0
sg1650
I21
sg1651
(lp2132
I36
aI4
aI21
asa(dp2133
g1647
I36
sg1648
I3
sg1649
F1.0
sg1650
I40
sg1651
(lp2134
I36
aI15
aI2
aI40
asa(dp2135
g1647
I36
sg1648
I9
sg1649
F1.0
sg1650
I56
sg1651
(lp2136
I36
aI48
aI5
aI56
asa(dp2137
g1647
I36
sg1648
I16
sg1649
F1.0
sg1650
I23
sg1651
(lp2138
I36
aI23
asa(dp2139
g1647
I36
sg1648
I4
sg1649
F1.0
sg1650
I3
sg1651
(lp2140
I36
aI4
aI22
aI3
asa(dp2141
g1647
I36
sg1648
I7
sg1649
F1.0
sg1650
I43
sg1651
(lp2142
I36
aI4
aI16
aI43
asa(dp2143
g1647
I36
sg1648
I13
sg1649
F1.0
sg1650
I45
sg1651
(lp2144
I36
aI48
aI57
aI45
asa(dp2145
g1647
I36
sg1648
I24
sg1649
F1.0
sg1650
I17
sg1651
(lp2146
I36
aI17
asa(dp2147
g1647
I36
sg1648
I17
sg1649
F1.0
sg1650
I40
sg1651
(lp2148
I36
aI15
aI2
aI40
asa(dp2149
g1647
I36
sg1648
I22
sg1649
F1.0
sg1650
I52
sg1651
(lp2150
I36
aI4
aI16
aI1
aI6
aI52
asa(dp2151
g1647
I36
sg1648
I18
sg1649
F1.0
sg1650
I52
sg1651
(lp2152
I36
aI4
aI16
aI1
aI6
aI52
asa(dp2153
g1647
I36
sg1648
I27
sg1649
F1.0
sg1650
I29
sg1651
(lp2154
I36
aI4
aI55
aI29
asa(dp2155
g1647
I36
sg1648
I23
sg1649
F1.0
sg1650
I51
sg1651
(lp2156
I36
aI15
aI2
aI40
aI51
asa(dp2157
g1647
I36
sg1648
I8
sg1649
F1.0
sg1650
I15
sg1651
(lp2158
I36
aI15
asa(dp2159
g1647
I36
sg1648
I15
sg1649
F1.0
sg1650
I37
sg1651
(lp2160
I36
aI15
aI37
asa(dp2161
g1647
I36
sg1648
I25
sg1649
F1.0
sg1650
I28
sg1651
(lp2162
I36
aI17
aI28
asa(dp2163
g1647
I36
sg1648
I14
sg1649
F1.0
sg1650
I31
sg1651
(lp2164
I36
aI17
aI31
asa(dp2165
g1647
I36
sg1648
I1
sg1649
F1.0
sg1650
I11
sg1651
(lp2166
I36
aI4
aI21
aI11
asa(dp2167
g1647
I36
sg1648
I2
sg1649
F1.0
sg1650
I50
sg1651
(lp2168
I36
aI15
aI2
aI50
asa(dp2169
g1647
I36
sg1648
I11
sg1649
F1.0
sg1650
I20
sg1651
(lp2170
I36
aI15
aI37
aI7
aI20
asa(dp2171
g1647
I36
sg1648
I21
sg1649
F1.0
sg1650
I14
sg1651
(lp2172
I36
aI4
aI16
aI10
aI14
asa(dp2173
g1647
I36
sg1648
I0
sg1649
F1.0
sg1650
I19
sg1651
(lp2174
I36
aI4
aI21
aI38
aI0
aI19
asa(dp2175
g1647
I36
sg1648
I10
sg1649
F1.0
sg1650
I43
sg1651
(lp2176
I36
aI4
aI16
aI43
asa(dp2177
g1647
I36
sg1648
I20
sg1649
F1.0
sg1650
I39
sg1651
(lp2178
I36
aI23
aI39
asa(dp2179
g1647
I36
sg1648
I5
sg1649
F1.0
sg1650
I14
sg1651
(lp2180
I36
aI4
aI16
aI10
aI14
asa(dp2181
g1647
I36
sg1648
I29
sg1649
F1.0
sg1650
I37
sg1651
(lp2182
I36
aI15
aI37
asa(dp2183
g1647
I36
sg1648
I19
sg1649
F1.0
sg1650
I63
sg1651
(lp2184
I36
aI15
aI2
aI50
aI63
asa(dp2185
g1647
I36
sg1648
I6
sg1649
F1.0
sg1650
I34
sg1651
(lp2186
I36
aI15
aI8
aI34
asa(dp2187
g1647
I36
sg1648
I12
sg1649
F1.0
sg1650
I58
sg1651
(lp2188
I36
aI4
aI16
aI58
asa(dp2189
g1647
I36
sg1648
I26
sg1649
F1.0
sg1650
I35
sg1651
(lp2190
I36
aI4
aI22
aI35
asa(dp2191
g1647
I38
sg1648
I26
sg1649
F1.0
sg1650
I35
sg1651
(lp2192
I38
aI0
aI46
aI44
aI35
asa(dp2193
g1647
I38
sg1648
I22
sg1649
F1.0
sg1650
I52
sg1651
(lp2194
I38
aI0
aI52
asa(dp2195
g1647
I38
sg1648
I27
sg1649
F1.0
sg1650
I29
sg1651
(lp2196
I38
aI0
aI29
asa(dp2197
g1647
I38
sg1648
I3
sg1649
F1.0
sg1650
I40
sg1651
(lp2198
I38
aI0
aI40
asa(dp2199
g1647
I38
sg1648
I11
sg1649
F1.0
sg1650
I20
sg1651
(lp2200
I38
aI33
aI7
aI20
asa(dp2201
g1647
I38
sg1648
I15
sg1649
F1.0
sg1650
I37
sg1651
(lp2202
I38
aI33
aI3
aI37
asa(dp2203
g1647
I38
sg1648
I8
sg1649
F1.0
sg1650
I15
sg1651
(lp2204
I38
aI8
aI15
asa(dp2205
g1647
I38
sg1648
I23
sg1649
F1.0
sg1650
I51
sg1651
(lp2206
I38
aI0
aI40
aI51
asa(dp2207
g1647
I38
sg1648
I6
sg1649
F1.0
sg1650
I34
sg1651
(lp2208
I38
aI6
aI34
asa(dp2209
g1647
I38
sg1648
I19
sg1649
F1.0
sg1650
I63
sg1651
(lp2210
I38
aI0
aI40
aI2
aI50
aI63
asa(dp2211
g1647
I38
sg1648
I9
sg1649
F1.0
sg1650
I56
sg1651
(lp2212
I38
aI0
aI40
aI2
aI48
aI5
aI56
asa(dp2213
g1647
I38
sg1648
I25
sg1649
F1.0
sg1650
I28
sg1651
(lp2214
I38
aI33
aI7
aI28
asa(dp2215
g1647
I38
sg1648
I16
sg1649
F1.0
sg1650
I23
sg1651
(lp2216
I38
aI6
aI1
aI39
aI23
asa(dp2217
g1647
I38
sg1648
I0
sg1649
F1.0
sg1650
I19
sg1651
(lp2218
I38
aI0
aI19
asa(dp2219
g1647
I38
sg1648
I28
sg1649
F1.0
sg1650
I21
sg1651
(lp2220
I38
aI21
asa(dp2221
g1647
I38
sg1648
I5
sg1649
F1.0
sg1650
I14
sg1651
(lp2222
I38
aI33
aI3
aI14
asa(dp2223
g1647
I38
sg1648
I24
sg1649
F1.0
sg1650
I17
sg1651
(lp2224
I38
aI33
aI3
aI37
aI17
asa(dp2225
g1647
I38
sg1648
I7
sg1649
F1.0
sg1650
I43
sg1651
(lp2226
I38
aI0
aI46
aI55
aI43
asa(dp2227
g1647
I38
sg1648
I20
sg1649
F1.0
sg1650
I39
sg1651
(lp2228
I38
aI6
aI1
aI39
asa(dp2229
g1647
I38
sg1648
I18
sg1649
F1.0
sg1650
I52
sg1651
(lp2230
I38
aI0
aI52
asa(dp2231
g1647
I38
sg1648
I10
sg1649
F1.0
sg1650
I43
sg1651
(lp2232
I38
aI0
aI46
aI55
aI43
asa(dp2233
g1647
I38
sg1648
I14
sg1649
F1.0
sg1650
I31
sg1651
(lp2234
I38
aI33
aI3
aI37
aI17
aI31
asa(dp2235
g1647
I38
sg1648
I12
sg1649
F1.0
sg1650
I58
sg1651
(lp2236
I38
aI33
aI3
aI14
aI58
asa(dp2237
g1647
I38
sg1648
I4
sg1649
F1.0
sg1650
I3
sg1651
(lp2238
I38
aI33
aI3
asa(dp2239
g1647
I38
sg1648
I21
sg1649
F1.0
sg1650
I14
sg1651
(lp2240
I38
aI33
aI3
aI14
asa(dp2241
g1647
I38
sg1648
I13
sg1649
F1.0
sg1650
I45
sg1651
(lp2242
I38
aI0
aI40
aI51
aI45
asa(dp2243
g1647
I38
sg1648
I2
sg1649
F1.0
sg1650
I50
sg1651
(lp2244
I38
aI0
aI40
aI2
aI50
asa(dp2245
g1647
I38
sg1648
I1
sg1649
F1.0
sg1650
I11
sg1651
(lp2246
I38
aI33
aI11
asa(dp2247
g1647
I38
sg1648
I29
sg1649
F1.0
sg1650
I37
sg1651
(lp2248
I38
aI33
aI3
aI37
asa(dp2249
g1647
I38
sg1648
I17
sg1649
F1.0
sg1650
I40
sg1651
(lp2250
I38
aI0
aI40
asa(dp2251
g1647
I17
sg1648
I12
sg1649
F1.0
sg1650
I58
sg1651
(lp2252
I17
aI22
aI58
asa(dp2253
g1647
I17
sg1648
I6
sg1649
F1.0
sg1650
I34
sg1651
(lp2254
I17
aI36
aI15
aI8
aI34
asa(dp2255
g1647
I17
sg1648
I11
sg1649
F1.0
sg1650
I20
sg1651
(lp2256
I17
aI28
aI7
aI20
asa(dp2257
g1647
I17
sg1648
I15
sg1649
F1.0
sg1650
I37
sg1651
(lp2258
I17
aI37
asa(dp2259
g1647
I17
sg1648
I0
sg1649
F1.0
sg1650
I19
sg1651
(lp2260
I17
aI5
aI35
aI44
aI19
asa(dp2261
g1647
I17
sg1648
I23
sg1649
F1.0
sg1650
I51
sg1651
(lp2262
I17
aI36
aI15
aI2
aI40
aI51
asa(dp2263
g1647
I17
sg1648
I21
sg1649
F1.0
sg1650
I14
sg1651
(lp2264
I17
aI22
aI3
aI14
asa(dp2265
g1647
I17
sg1648
I28
sg1649
F1.0
sg1650
I21
sg1651
(lp2266
I17
aI36
aI4
aI21
asa(dp2267
g1647
I17
sg1648
I24
sg1649
F1.0
sg1650
I17
sg1651
(lp2268
I17
asa(dp2269
g1647
I17
sg1648
I13
sg1649
F1.0
sg1650
I45
sg1651
(lp2270
I17
aI36
aI48
aI57
aI45
asa(dp2271
g1647
I17
sg1648
I17
sg1649
F1.0
sg1650
I40
sg1651
(lp2272
I17
aI36
aI15
aI2
aI40
asa(dp2273
g1647
I17
sg1648
I16
sg1649
F1.0
sg1650
I23
sg1651
(lp2274
I17
aI36
aI23
asa(dp2275
g1647
I17
sg1648
I26
sg1649
F1.0
sg1650
I35
sg1651
(lp2276
I17
aI5
aI35
asa(dp2277
g1647
I17
sg1648
I29
sg1649
F1.0
sg1650
I37
sg1651
(lp2278
I17
aI37
asa(dp2279
g1647
I17
sg1648
I27
sg1649
F1.0
sg1650
I29
sg1651
(lp2280
I17
aI36
aI4
aI55
aI29
asa(dp2281
g1647
I17
sg1648
I7
sg1649
F1.0
sg1650
I43
sg1651
(lp2282
I17
aI36
aI4
aI16
aI43
asa(dp2283
g1647
I17
sg1648
I14
sg1649
F1.0
sg1650
I31
sg1651
(lp2284
I17
aI31
asa(dp2285
g1647
I17
sg1648
I20
sg1649
F1.0
sg1650
I39
sg1651
(lp2286
I17
aI36
aI23
aI39
asa(dp2287
g1647
I17
sg1648
I3
sg1649
F1.0
sg1650
I40
sg1651
(lp2288
I17
aI36
aI15
aI2
aI40
asa(dp2289
g1647
I17
sg1648
I9
sg1649
F1.0
sg1650
I56
sg1651
(lp2290
I17
aI5
aI56
asa(dp2291
g1647
I17
sg1648
I22
sg1649
F1.0
sg1650
I52
sg1651
(lp2292
I17
aI36
aI4
aI16
aI1
aI6
aI52
asa(dp2293
g1647
I17
sg1648
I4
sg1649
F1.0
sg1650
I3
sg1651
(lp2294
I17
aI22
aI3
asa(dp2295
g1647
I17
sg1648
I25
sg1649
F1.0
sg1650
I28
sg1651
(lp2296
I17
aI28
asa(dp2297
g1647
I17
sg1648
I10
sg1649
F1.0
sg1650
I43
sg1651
(lp2298
I17
aI36
aI4
aI16
aI43
asa(dp2299
g1647
I17
sg1648
I19
sg1649
F1.0
sg1650
I63
sg1651
(lp2300
I17
aI5
aI50
aI63
asa(dp2301
g1647
I17
sg1648
I18
sg1649
F1.0
sg1650
I52
sg1651
(lp2302
I17
aI36
aI4
aI16
aI1
aI6
aI52
asa(dp2303
g1647
I17
sg1648
I8
sg1649
F1.0
sg1650
I15
sg1651
(lp2304
I17
aI36
aI15
asa(dp2305
g1647
I17
sg1648
I5
sg1649
F1.0
sg1650
I14
sg1651
(lp2306
I17
aI22
aI3
aI14
asa(dp2307
g1647
I17
sg1648
I2
sg1649
F1.0
sg1650
I50
sg1651
(lp2308
I17
aI5
aI50
asa(dp2309
g1647
I17
sg1648
I1
sg1649
F1.0
sg1650
I11
sg1651
(lp2310
I17
aI22
aI11
asa(dp2311
g1647
I15
sg1648
I7
sg1649
F1.0
sg1650
I43
sg1651
(lp2312
I15
aI2
aI48
aI55
aI43
asa(dp2313
g1647
I15
sg1648
I23
sg1649
F1.0
sg1650
I51
sg1651
(lp2314
I15
aI2
aI40
aI51
asa(dp2315
g1647
I15
sg1648
I19
sg1649
F1.0
sg1650
I63
sg1651
(lp2316
I15
aI2
aI50
aI63
asa(dp2317
g1647
I15
sg1648
I21
sg1649
F1.0
sg1650
I14
sg1651
(lp2318
I15
aI37
aI3
aI14
asa(dp2319
g1647
I15
sg1648
I14
sg1649
F1.0
sg1650
I31
sg1651
(lp2320
I15
aI36
aI17
aI31
asa(dp2321
g1647
I15
sg1648
I29
sg1649
F1.0
sg1650
I37
sg1651
(lp2322
I15
aI37
asa(dp2323
g1647
I15
sg1648
I0
sg1649
F1.0
sg1650
I19
sg1651
(lp2324
I15
aI2
aI40
aI0
aI19
asa(dp2325
g1647
I15
sg1648
I8
sg1649
F1.0
sg1650
I15
sg1651
(lp2326
I15
asa(dp2327
g1647
I15
sg1648
I26
sg1649
F1.0
sg1650
I35
sg1651
(lp2328
I15
aI2
aI48
aI5
aI35
asa(dp2329
g1647
I15
sg1648
I12
sg1649
F1.0
sg1650
I58
sg1651
(lp2330
I15
aI36
aI4
aI16
aI58
asa(dp2331
g1647
I15
sg1648
I17
sg1649
F1.0
sg1650
I40
sg1651
(lp2332
I15
aI2
aI40
asa(dp2333
g1647
I15
sg1648
I25
sg1649
F1.0
sg1650
I28
sg1651
(lp2334
I15
aI36
aI17
aI28
asa(dp2335
g1647
I15
sg1648
I15
sg1649
F1.0
sg1650
I37
sg1651
(lp2336
I15
aI37
asa(dp2337
g1647
I15
sg1648
I1
sg1649
F1.0
sg1650
I11
sg1651
(lp2338
I15
aI36
aI4
aI21
aI11
asa(dp2339
g1647
I15
sg1648
I20
sg1649
F1.0
sg1650
I39
sg1651
(lp2340
I15
aI36
aI23
aI39
asa(dp2341
g1647
I15
sg1648
I13
sg1649
F1.0
sg1650
I45
sg1651
(lp2342
I15
aI2
aI40
aI51
aI45
asa(dp2343
g1647
I15
sg1648
I3
sg1649
F1.0
sg1650
I40
sg1651
(lp2344
I15
aI2
aI40
asa(dp2345
g1647
I15
sg1648
I27
sg1649
F1.0
sg1650
I29
sg1651
(lp2346
I15
aI2
aI29
asa(dp2347
g1647
I15
sg1648
I5
sg1649
F1.0
sg1650
I14
sg1651
(lp2348
I15
aI37
aI3
aI14
asa(dp2349
g1647
I15
sg1648
I9
sg1649
F1.0
sg1650
I56
sg1651
(lp2350
I15
aI2
aI48
aI5
aI56
asa(dp2351
g1647
I15
sg1648
I18
sg1649
F1.0
sg1650
I52
sg1651
(lp2352
I15
aI2
aI40
aI0
aI52
asa(dp2353
g1647
I15
sg1648
I22
sg1649
F1.0
sg1650
I52
sg1651
(lp2354
I15
aI2
aI40
aI0
aI52
asa(dp2355
g1647
I15
sg1648
I11
sg1649
F1.0
sg1650
I20
sg1651
(lp2356
I15
aI37
aI7
aI20
asa(dp2357
g1647
I15
sg1648
I4
sg1649
F1.0
sg1650
I3
sg1651
(lp2358
I15
aI37
aI3
asa(dp2359
g1647
I15
sg1648
I24
sg1649
F1.0
sg1650
I17
sg1651
(lp2360
I15
aI36
aI17
asa(dp2361
g1647
I15
sg1648
I2
sg1649
F1.0
sg1650
I50
sg1651
(lp2362
I15
aI2
aI50
asa(dp2363
g1647
I15
sg1648
I6
sg1649
F1.0
sg1650
I34
sg1651
(lp2364
I15
aI8
aI34
asa(dp2365
g1647
I15
sg1648
I16
sg1649
F1.0
sg1650
I23
sg1651
(lp2366
I15
aI36
aI23
asa(dp2367
g1647
I15
sg1648
I28
sg1649
F1.0
sg1650
I21
sg1651
(lp2368
I15
aI36
aI4
aI21
asa(dp2369
g1647
I15
sg1648
I10
sg1649
F1.0
sg1650
I43
sg1651
(lp2370
I15
aI2
aI48
aI55
aI43
asa(dp2371
g1647
I24
sg1648
I18
sg1649
F1.0
sg1650
I52
sg1651
(lp2372
I24
aI38
aI0
aI52
asa(dp2373
g1647
I24
sg1648
I3
sg1649
F1.0
sg1650
I40
sg1651
(lp2374
I24
aI38
aI0
aI40
asa(dp2375
g1647
I24
sg1648
I9
sg1649
F1.0
sg1650
I56
sg1651
(lp2376
I24
aI3
aI37
aI17
aI5
aI56
asa(dp2377
g1647
I24
sg1648
I25
sg1649
F1.0
sg1650
I28
sg1651
(lp2378
I24
aI3
aI33
aI7
aI28
asa(dp2379
g1647
I24
sg1648
I13
sg1649
F1.0
sg1650
I45
sg1651
(lp2380
I24
aI4
aI36
aI48
aI57
aI45
asa(dp2381
g1647
I24
sg1648
I8
sg1649
F1.0
sg1650
I15
sg1651
(lp2382
I24
aI15
asa(dp2383
g1647
I24
sg1648
I23
sg1649
F1.0
sg1650
I51
sg1651
(lp2384
I24
aI38
aI0
aI40
aI51
asa(dp2385
g1647
I24
sg1648
I22
sg1649
F1.0
sg1650
I52
sg1651
(lp2386
I24
aI38
aI0
aI52
asa(dp2387
g1647
I24
sg1648
I4
sg1649
F1.0
sg1650
I3
sg1651
(lp2388
I24
aI3
asa(dp2389
g1647
I24
sg1648
I6
sg1649
F1.0
sg1650
I34
sg1651
(lp2390
I24
aI38
aI6
aI34
asa(dp2391
g1647
I24
sg1648
I10
sg1649
F1.0
sg1650
I43
sg1651
(lp2392
I24
aI4
aI16
aI43
asa(dp2393
g1647
I24
sg1648
I17
sg1649
F1.0
sg1650
I40
sg1651
(lp2394
I24
aI38
aI0
aI40
asa(dp2395
g1647
I24
sg1648
I27
sg1649
F1.0
sg1650
I29
sg1651
(lp2396
I24
aI29
asa(dp2397
g1647
I24
sg1648
I14
sg1649
F1.0
sg1650
I31
sg1651
(lp2398
I24
aI3
aI37
aI17
aI31
asa(dp2399
g1647
I24
sg1648
I7
sg1649
F1.0
sg1650
I43
sg1651
(lp2400
I24
aI4
aI16
aI43
asa(dp2401
g1647
I24
sg1648
I16
sg1649
F1.0
sg1650
I23
sg1651
(lp2402
I24
aI4
aI36
aI23
asa(dp2403
g1647
I24
sg1648
I20
sg1649
F1.0
sg1650
I39
sg1651
(lp2404
I24
aI4
aI36
aI23
aI39
asa(dp2405
g1647
I24
sg1648
I26
sg1649
F1.0
sg1650
I35
sg1651
(lp2406
I24
aI3
aI53
aI35
asa(dp2407
g1647
I24
sg1648
I24
sg1649
F1.0
sg1650
I17
sg1651
(lp2408
I24
aI3
aI37
aI17
asa(dp2409
g1647
I24
sg1648
I29
sg1649
F1.0
sg1650
I37
sg1651
(lp2410
I24
aI3
aI37
asa(dp2411
g1647
I24
sg1648
I0
sg1649
F1.0
sg1650
I19
sg1651
(lp2412
I24
aI3
aI33
aI19
asa(dp2413
g1647
I24
sg1648
I2
sg1649
F1.0
sg1650
I50
sg1651
(lp2414
I24
aI3
aI37
aI50
asa(dp2415
g1647
I24
sg1648
I5
sg1649
F1.0
sg1650
I14
sg1651
(lp2416
I24
aI3
aI14
asa(dp2417
g1647
I24
sg1648
I21
sg1649
F1.0
sg1650
I14
sg1651
(lp2418
I24
aI3
aI14
asa(dp2419
g1647
I24
sg1648
I19
sg1649
F1.0
sg1650
I63
sg1651
(lp2420
I24
aI3
aI37
aI50
aI63
asa(dp2421
g1647
I24
sg1648
I28
sg1649
F1.0
sg1650
I21
sg1651
(lp2422
I24
aI4
aI21
asa(dp2423
g1647
I24
sg1648
I12
sg1649
F1.0
sg1650
I58
sg1651
(lp2424
I24
aI3
aI14
aI58
asa(dp2425
g1647
I24
sg1648
I1
sg1649
F1.0
sg1650
I11
sg1651
(lp2426
I24
aI3
aI33
aI11
asa(dp2427
g1647
I24
sg1648
I11
sg1649
F1.0
sg1650
I20
sg1651
(lp2428
I24
aI3
aI33
aI7
aI20
asa(dp2429
g1647
I24
sg1648
I15
sg1649
F1.0
sg1650
I37
sg1651
(lp2430
I24
aI3
aI37
asa(dp2431
g1647
I54
sg1648
I4
sg1649
F1.0
sg1650
I3
sg1651
(lp2432
I54
aI2
aI15
aI37
aI3
asa(dp2433
g1647
I54
sg1648
I12
sg1649
F1.0
sg1650
I58
sg1651
(lp2434
I54
aI49
aI41
aI14
aI58
asa(dp2435
g1647
I54
sg1648
I7
sg1649
F1.0
sg1650
I43
sg1651
(lp2436
I54
aI49
aI43
asa(dp2437
g1647
I54
sg1648
I18
sg1649
F1.0
sg1650
I52
sg1651
(lp2438
I54
aI49
aI52
asa(dp2439
g1647
I54
sg1648
I10
sg1649
F1.0
sg1650
I43
sg1651
(lp2440
I54
aI49
aI43
asa(dp2441
g1647
I54
sg1648
I29
sg1649
F1.0
sg1650
I37
sg1651
(lp2442
I54
aI2
aI15
aI37
asa(dp2443
g1647
I54
sg1648
I1
sg1649
F1.0
sg1650
I11
sg1651
(lp2444
I54
aI2
aI40
aI0
aI38
aI33
aI11
asa(dp2445
g1647
I54
sg1648
I20
sg1649
F1.0
sg1650
I39
sg1651
(lp2446
I54
aI51
aI34
aI39
asa(dp2447
g1647
I54
sg1648
I16
sg1649
F1.0
sg1650
I23
sg1651
(lp2448
I54
aI61
aI23
asa(dp2449
g1647
I54
sg1648
I9
sg1649
F1.0
sg1650
I56
sg1651
(lp2450
I54
aI61
aI56
asa(dp2451
g1647
I54
sg1648
I13
sg1649
F1.0
sg1650
I45
sg1651
(lp2452
I54
aI51
aI45
asa(dp2453
g1647
I54
sg1648
I23
sg1649
F1.0
sg1650
I51
sg1651
(lp2454
I54
aI51
asa(dp2455
g1647
I54
sg1648
I26
sg1649
F1.0
sg1650
I35
sg1651
(lp2456
I54
aI2
aI48
aI5
aI35
asa(dp2457
g1647
I54
sg1648
I11
sg1649
F1.0
sg1650
I20
sg1651
(lp2458
I54
aI51
aI34
aI20
asa(dp2459
g1647
I54
sg1648
I2
sg1649
F1.0
sg1650
I50
sg1651
(lp2460
I54
aI2
aI50
asa(dp2461
g1647
I54
sg1648
I6
sg1649
F1.0
sg1650
I34
sg1651
(lp2462
I54
aI51
aI34
asa(dp2463
g1647
I54
sg1648
I8
sg1649
F1.0
sg1650
I15
sg1651
(lp2464
I54
aI2
aI15
asa(dp2465
g1647
I54
sg1648
I27
sg1649
F1.0
sg1650
I29
sg1651
(lp2466
I54
aI2
aI29
asa(dp2467
g1647
I54
sg1648
I0
sg1649
F1.0
sg1650
I19
sg1651
(lp2468
I54
aI2
aI40
aI0
aI19
asa(dp2469
g1647
I54
sg1648
I17
sg1649
F1.0
sg1650
I40
sg1651
(lp2470
I54
aI2
aI40
asa(dp2471
g1647
I54
sg1648
I5
sg1649
F1.0
sg1650
I14
sg1651
(lp2472
I54
aI49
aI41
aI14
asa(dp2473
g1647
I54
sg1648
I14
sg1649
F1.0
sg1650
I31
sg1651
(lp2474
I54
aI61
aI23
aI31
asa(dp2475
g1647
I54
sg1648
I19
sg1649
F1.0
sg1650
I63
sg1651
(lp2476
I54
aI63
asa(dp2477
g1647
I54
sg1648
I15
sg1649
F1.0
sg1650
I37
sg1651
(lp2478
I54
aI2
aI15
aI37
asa(dp2479
g1647
I54
sg1648
I3
sg1649
F1.0
sg1650
I40
sg1651
(lp2480
I54
aI2
aI40
asa(dp2481
g1647
I54
sg1648
I22
sg1649
F1.0
sg1650
I52
sg1651
(lp2482
I54
aI49
aI52
asa(dp2483
g1647
I54
sg1648
I25
sg1649
F1.0
sg1650
I28
sg1651
(lp2484
I54
aI2
aI40
aI8
aI7
aI28
asa(dp2485
g1647
I54
sg1648
I21
sg1649
F1.0
sg1650
I14
sg1651
(lp2486
I54
aI49
aI41
aI14
asa(dp2487
g1647
I54
sg1648
I24
sg1649
F1.0
sg1650
I17
sg1651
(lp2488
I54
aI2
aI15
aI36
aI17
asa(dp2489
g1647
I54
sg1648
I28
sg1649
F1.0
sg1650
I21
sg1651
(lp2490
I54
aI2
aI40
aI0
aI38
aI21
asa(dp2491
g1647
I34
sg1648
I5
sg1649
F1.0
sg1650
I14
sg1651
(lp2492
I34
aI6
aI10
aI14
asa(dp2493
g1647
I34
sg1648
I7
sg1649
F1.0
sg1650
I43
sg1651
(lp2494
I34
aI6
aI1
aI16
aI43
asa(dp2495
g1647
I34
sg1648
I9
sg1649
F1.0
sg1650
I56
sg1651
(lp2496
I34
aI39
aI45
aI42
aI56
asa(dp2497
g1647
I34
sg1648
I20
sg1649
F1.0
sg1650
I39
sg1651
(lp2498
I34
aI39
asa(dp2499
g1647
I34
sg1648
I19
sg1649
F1.0
sg1650
I63
sg1651
(lp2500
I34
aI51
aI9
aI63
asa(dp2501
g1647
I34
sg1648
I18
sg1649
F1.0
sg1650
I52
sg1651
(lp2502
I34
aI6
aI52
asa(dp2503
g1647
I34
sg1648
I0
sg1649
F1.0
sg1650
I19
sg1651
(lp2504
I34
aI6
aI38
aI0
aI19
asa(dp2505
g1647
I34
sg1648
I17
sg1649
F1.0
sg1650
I40
sg1651
(lp2506
I34
aI8
aI40
asa(dp2507
g1647
I34
sg1648
I28
sg1649
F1.0
sg1650
I21
sg1651
(lp2508
I34
aI6
aI1
aI21
asa(dp2509
g1647
I34
sg1648
I4
sg1649
F1.0
sg1650
I3
sg1651
(lp2510
I34
aI6
aI38
aI33
aI3
asa(dp2511
g1647
I34
sg1648
I22
sg1649
F1.0
sg1650
I52
sg1651
(lp2512
I34
aI6
aI52
asa(dp2513
g1647
I34
sg1648
I10
sg1649
F1.0
sg1650
I43
sg1651
(lp2514
I34
aI6
aI1
aI16
aI43
asa(dp2515
g1647
I34
sg1648
I21
sg1649
F1.0
sg1650
I14
sg1651
(lp2516
I34
aI6
aI10
aI14
asa(dp2517
g1647
I34
sg1648
I15
sg1649
F1.0
sg1650
I37
sg1651
(lp2518
I34
aI8
aI7
aI37
asa(dp2519
g1647
I34
sg1648
I26
sg1649
F1.0
sg1650
I35
sg1651
(lp2520
I34
aI6
aI1
aI16
aI4
aI22
aI35
asa(dp2521
g1647
I34
sg1648
I25
sg1649
F1.0
sg1650
I28
sg1651
(lp2522
I34
aI39
aI13
aI28
asa(dp2523
g1647
I34
sg1648
I14
sg1649
F1.0
sg1650
I31
sg1651
(lp2524
I34
aI39
aI13
aI31
asa(dp2525
g1647
I34
sg1648
I23
sg1649
F1.0
sg1650
I51
sg1651
(lp2526
I34
aI51
asa(dp2527
g1647
I34
sg1648
I24
sg1649
F1.0
sg1650
I17
sg1651
(lp2528
I34
aI39
aI13
aI28
aI17
asa(dp2529
g1647
I34
sg1648
I12
sg1649
F1.0
sg1650
I58
sg1651
(lp2530
I34
aI6
aI1
aI16
aI58
asa(dp2531
g1647
I34
sg1648
I2
sg1649
F1.0
sg1650
I50
sg1651
(lp2532
I34
aI8
aI7
aI37
aI50
asa(dp2533
g1647
I34
sg1648
I11
sg1649
F1.0
sg1650
I20
sg1651
(lp2534
I34
aI20
asa(dp2535
g1647
I34
sg1648
I1
sg1649
F1.0
sg1650
I11
sg1651
(lp2536
I34
aI6
aI1
aI21
aI11
asa(dp2537
g1647
I34
sg1648
I8
sg1649
F1.0
sg1650
I15
sg1651
(lp2538
I34
aI8
aI15
asa(dp2539
g1647
I34
sg1648
I6
sg1649
F1.0
sg1650
I34
sg1651
(lp2540
I34
asa(dp2541
g1647
I34
sg1648
I16
sg1649
F1.0
sg1650
I23
sg1651
(lp2542
I34
aI39
aI23
asa(dp2543
g1647
I34
sg1648
I29
sg1649
F1.0
sg1650
I37
sg1651
(lp2544
I34
aI8
aI7
aI37
asa(dp2545
g1647
I34
sg1648
I27
sg1649
F1.0
sg1650
I29
sg1651
(lp2546
I34
aI6
aI38
aI0
aI29
asa(dp2547
g1647
I34
sg1648
I3
sg1649
F1.0
sg1650
I40
sg1651
(lp2548
I34
aI8
aI40
asa(dp2549
g1647
I34
sg1648
I13
sg1649
F1.0
sg1650
I45
sg1651
(lp2550
I34
aI39
aI45
asasS'bandwidths'
p2551
(dp2552
(I51
I40
tp2553
F2.55
s(I40
I0
tp2554
F5.95
s(I4
I36
tp2555
F17.0
s(I36
I17
tp2556
F10.2
s(I24
I4
tp2557
F5.1
s(I4
I55
tp2558
F2.55
s(I1
I6
tp2559
F7.6499999999999995
s(I38
I21
tp2560
F4.25
s(I9
I51
tp2561
F1.7
s(I12
I40
tp2562
F1.7
s(I2
I48
tp2563
F5.95
s(I33
I3
tp2564
F31.45
s(I34
I8
tp2565
F12.75
s(I6
I10
tp2566
F5.1
s(I29
I53
tp2567
F1.7
s(I52
I32
tp2568
F5.95
s(I57
I45
tp2569
F4.25
s(I61
I23
tp2570
F1.7
s(I39
I34
tp2571
F4.25
s(I7
I28
tp2572
F5.1
s(I8
I15
tp2573
F5.1
s(I22
I3
tp2574
F4.25
s(I37
I7
tp2575
F2.55
s(I11
I28
tp2576
F0.85
s(I6
I52
tp2577
F8.5
s(I4
I16
tp2578
F17.849999999999998
s(I51
I34
tp2579
F3.4
s(I34
I6
tp2580
F11.049999999999999
s(I54
I61
tp2581
F2.55
s(I11
I21
tp2582
F0.85
s(I24
I29
tp2583
F0.85
s(I53
I3
tp2584
F1.7
s(I60
I12
tp2585
F1.7
s(I28
I17
tp2586
F2.55
s(I0
I52
tp2587
F11.9
s(I34
I20
tp2588
F3.4
s(I12
I50
tp2589
F0.85
s(I10
I14
tp2590
F8.5
s(I39
I1
tp2591
F5.1
s(I4
I21
tp2592
F8.5
s(I42
I13
tp2593
F1.7
s(I37
I3
tp2594
F3.4
s(I1
I21
tp2595
F5.1
s(I48
I5
tp2596
F5.95
s(I38
I8
tp2597
F2.55
s(I32
I19
tp2598
F0.85
s(I39
I13
tp2599
F7.6499999999999995
s(I5
I50
tp2600
F3.4
s(I53
I29
tp2601
F1.7
s(I44
I19
tp2602
F1.7
s(I40
I51
tp2603
F11.049999999999999
s(I52
I6
tp2604
F2.55
s(I33
I7
tp2605
F8.5
s(I15
I36
tp2606
F11.049999999999999
s(I53
I35
tp2607
F2.55
s(I52
I49
tp2608
F1.7
s(I29
I49
tp2609
F4.25
s(I16
I10
tp2610
F3.4
s(I38
I6
tp2611
F7.6499999999999995
s(I1
I16
tp2612
F7.6499999999999995
s(I48
I2
tp2613
F0.85
s(I5
I56
tp2614
F8.5
s(I7
I37
tp2615
F6.8
s(I46
I0
tp2616
F16.15
s(I61
I56
tp2617
F0.85
s(I44
I35
tp2618
F5.95
s(I54
I2
tp2619
F11.9
s(I44
I46
tp2620
F1.7
s(I9
I20
tp2621
F1.7
s(I16
I4
tp2622
F1.7
s(I5
I17
tp2623
F5.1
s(I54
I49
tp2624
F5.95
s(I3
I33
tp2625
F3.4
s(I24
I15
tp2626
F0.85
s(I36
I23
tp2627
F11.049999999999999
s(I33
I38
tp2628
F7.6499999999999995
s(I49
I52
tp2629
F1.7
s(I21
I11
tp2630
F5.1
s(I35
I53
tp2631
F1.7
s(I39
I23
tp2632
F5.1
s(I2
I50
tp2633
F11.9
s(I0
I46
tp2634
F3.4
s(I6
I1
tp2635
F21.25
s(I55
I29
tp2636
F2.55
s(I37
I50
tp2637
F5.1
s(I45
I51
tp2638
F5.1
s(I16
I1
tp2639
F5.1
s(I47
I43
tp2640
F3.4
s(I37
I15
tp2641
F1.7
s(I55
I43
tp2642
F5.1
s(I48
I57
tp2643
F3.4
s(I17
I22
tp2644
F4.25
s(I2
I29
tp2645
F1.7
s(I51
I9
tp2646
F1.7
s(I23
I31
tp2647
F0.85
s(I60
I42
tp2648
F4.25
s(I51
I45
tp2649
F5.1
s(I29
I0
tp2650
F11.049999999999999
s(I36
I48
tp2651
F5.1
s(I0
I38
tp2652
F20.4
s(I40
I8
tp2653
F0.85
s(I4
I22
tp2654
F5.1
s(I54
I63
tp2655
F0.85
s(I7
I20
tp2656
F7.6499999999999995
s(I35
I44
tp2657
F0.85
s(I17
I28
tp2658
F4.25
s(I41
I47
tp2659
F1.7
s(I21
I1
tp2660
F1.7
s(I36
I4
tp2661
F18.7
s(I16
I58
tp2662
F5.1
s(I33
I11
tp2663
F5.1
s(I3
I37
tp2664
F21.25
s(I60
I5
tp2665
F14.45
s(I17
I5
tp2666
F5.95
s(I3
I53
tp2667
F2.55
s(I17
I31
tp2668
F8.5
s(I39
I45
tp2669
F3.4
s(I13
I28
tp2670
F5.1
s(I59
I43
tp2671
F1.7
s(I8
I7
tp2672
F7.6499999999999995
s(I22
I11
tp2673
F0.85
s(I28
I7
tp2674
F0.85
s(I60
I44
tp2675
F4.25
s(I51
I52
tp2676
F1.7
s(I47
I58
tp2677
F1.7
s(I0
I40
tp2678
F22.099999999999998
s(I41
I14
tp2679
F6.8
s(I40
I2
tp2680
F5.1
s(I2
I40
tp2681
F18.7
s(I0
I19
tp2682
F8.5
s(I49
I43
tp2683
F5.1
s(I38
I0
tp2684
F26.349999999999998
s(I22
I58
tp2685
F0.85
s(I45
I59
tp2686
F1.7
s(I9
I42
tp2687
F1.7
s(I24
I3
tp2688
F13.6
s(I14
I58
tp2689
F5.1
s(I17
I36
tp2690
F11.9
s(I44
I11
tp2691
F3.4
s(I9
I63
tp2692
F3.4
s(I50
I63
tp2693
F8.5
s(I14
I41
tp2694
F1.7
s(I13
I31
tp2695
F3.4
s(I9
I12
tp2696
F0.85
s(I48
I36
tp2697
F0.85
s(I36
I15
tp2698
F21.25
s(I60
I28
tp2699
F0.85
s(I48
I55
tp2700
F1.7
s(I54
I51
tp2701
F4.25
s(I32
I9
tp2702
F3.4
s(I8
I40
tp2703
F3.4
s(I15
I8
tp2704
F3.4
s(I46
I21
tp2705
F2.55
s(I3
I14
tp2706
F14.45
s(I34
I39
tp2707
F6.8
s(I17
I37
tp2708
F3.4
s(I16
I43
tp2709
F10.2
s(I24
I38
tp2710
F5.1
s(I46
I57
tp2711
F0.85
s(I46
I44
tp2712
F7.6499999999999995
s(I45
I39
tp2713
F13.6
s(I47
I41
tp2714
F1.7
s(I21
I38
tp2715
F1.7
s(I6
I34
tp2716
F13.6
s(I0
I29
tp2717
F5.1
s(I23
I39
tp2718
F4.25
s(I5
I35
tp2719
F11.049999999999999
s(I35
I47
tp2720
F5.1
s(I9
I32
tp2721
F0.85
s(I5
I48
tp2722
F1.7
s(I42
I45
tp2723
F0.85
s(I56
I5
tp2724
F0.85
s(I52
I0
tp2725
F11.9
s(I42
I56
tp2726
F4.25
s(I13
I39
tp2727
F0.85
s(I29
I2
tp2728
F7.6499999999999995
s(I52
I51
tp2729
F1.7
s(I1
I39
tp2730
F12.75
s(I45
I42
tp2731
F5.95
s(I42
I9
tp2732
F5.1
s(I49
I41
tp2733
F5.1
s(I22
I35
tp2734
F3.4
s(I34
I51
tp2735
F3.4
s(I8
I34
tp2736
F3.4
s(I15
I2
tp2737
F22.95
s(I6
I38
tp2738
F5.95
s(I37
I17
tp2739
F7.6499999999999995
s(I18
I14
tp2740
F2.55
s(I32
I18
tp2741
F2.55
s(I33
I19
tp2742
F1.7
s(I2
I15
tp2743
F10.2
s(I15
I37
tp2744
F14.45
s(I46
I55
tp2745
F3.4
s(I38
I33
tp2746
F25.5
s(I35
I5
tp2747
F2.55
ssS'capacities'
p2748
(dp2749
I0
I3
sI1
I3
sI2
I3
sI3
I3
sI4
I3
sI5
I3
sI6
I3
sI7
I3
sI8
I3
sI9
I3
sI10
I3
sI11
I3
sI12
I3
sI13
I3
sI14
I3
sI15
I3
sI16
I3
sI17
I3
sI18
I3
sI19
I3
sI20
I3
sI21
I3
sI22
I3
sI23
I3
sI24
I3
sI25
I3
sI26
I3
sI27
I3
sI28
I3
sI29
I3
sI30
I3
sI31
I3
sI32
I3
sI33
I3
sI34
I3
sI35
I3
sI36
I3
sI37
I3
sI38
I3
sI39
I3
sI40
I3
sI41
I3
sI42
I3
sI43
I3
sI44
I3
sI45
I3
sI46
I3
sI47
I3
sI48
I3
sI49
I3
sI50
I3
sI51
I3
sI52
I3
sI53
I3
sI54
I3
sI55
I3
sI56
I3
sI57
I3
sI58
I3
sI59
I3
sI60
I3
sI61
I3
sI62
I3
sI63
I3
ssS'REM'
p2750
ccopy_reg
_reconstructor
p2751
(cSparseVector
SparseVector
p2752
c__builtin__
dict
p2753
(dp2754
(I19
g4
tp2755
F0.5
s(I28
g1415
tp2756
F0.5
s(I8
g135
tp2757
F0.5
s(I28
g811
tp2758
F0.5
s(I23
g31
tp2759
F0.5
s(I27
g807
tp2760
F0.5
s(I0
g11
tp2761
F0.5
s(I28
g15
tp2762
F0.5
s(I18
g19
tp2763
F0.5
s(I15
g21
tp2764
F0.5
s(I12
g23
tp2765
F0.5
s(I17
g25
tp2766
F0.5
s(I25
g826
tp2767
F0.5
s(I14
g863
tp2768
F0.5
s(I19
g1391
tp2769
F0.5
s(I1
g813
tp2770
F0.5
s(I29
g34
tp2771
F0.5
s(I26
g36
tp2772
F0.5
s(I12
g41
tp2773
F0.5
s(I11
g43
tp2774
F0.5
s(I11
g840
tp2775
F0.5
s(I24
g46
tp2776
F0.5
s(I1
g843
tp2777
F0.5
s(I18
g50
tp2778
F0.5
s(I22
g816
tp2779
F0.5
s(I23
g604
tp2780
F0.5
s(I12
g326
tp2781
F0.5
s(I29
g61
tp2782
F0.5
s(I8
g65
tp2783
F0.5
s(I23
g69
tp2784
F0.5
s(I12
g74
tp2785
F0.5
s(I4
g395
tp2786
F0.5
s(I17
g78
tp2787
F0.5
s(I23
g356
tp2788
F0.5
s(I21
g420
tp2789
F0.5
s(I2
g83
tp2790
F0.5
s(I17
g85
tp2791
F0.5
s(I24
g872
tp2792
F0.5
s(I4
g470
tp2793
F0.5
s(I19
g91
tp2794
F0.5
s(I17
g506
tp2795
F0.5
s(I7
g515
tp2796
F0.5
s(I15
g95
tp2797
F0.5
s(I12
g97
tp2798
F0.5
s(I22
g1377
tp2799
F0.5
s(I14
g518
tp2800
F0.5
s(I26
g824
tp2801
F0.5
s(I25
g895
tp2802
F0.5
s(I12
g104
tp2803
F0.5
s(I3
g106
tp2804
F0.5
s(I27
g897
tp2805
F0.5
s(I28
g1192
tp2806
F0.5
s(I27
g899
tp2807
F0.5
s(I28
g901
tp2808
F0.5
s(I13
g903
tp2809
F0.5
s(I18
g1410
tp2810
F0.5
s(I9
g110
tp2811
F0.5
s(I3
g1437
tp2812
F0.5
s(I23
g912
tp2813
F0.5
s(I26
g116
tp2814
F0.5
s(I6
g1164
tp2815
F0.5
s(I13
g836
tp2816
F0.5
s(I25
g125
tp2817
F0.5
s(I26
g924
tp2818
F0.5
s(I25
g795
tp2819
F0.5
s(I25
g133
tp2820
F0.5
s(I9
g929
tp2821
F0.5
s(I9
g934
tp2822
F0.5
s(I21
g141
tp2823
F0.5
s(I2
g146
tp2824
F0.5
s(I12
g869
tp2825
F0.5
s(I10
g884
tp2826
F0.5
s(I23
g945
tp2827
F0.5
s(I29
g947
tp2828
F0.5
s(I17
g614
tp2829
F0.5
s(I17
g949
tp2830
F0.5
s(I13
g688
tp2831
F0.5
s(I22
g953
tp2832
F0.5
s(I0
g955
tp2833
F0.5
s(I20
g155
tp2834
F0.5
s(I22
g965
tp2835
F0.5
s(I10
g1001
tp2836
F0.5
s(I12
g969
tp2837
F0.5
s(I14
g161
tp2838
F0.5
s(I0
g1028
tp2839
F0.5
s(I11
g165
tp2840
F0.5
s(I6
g832
tp2841
F0.5
s(I12
g972
tp2842
F0.5
s(I8
g974
tp2843
F0.5
s(I28
g172
tp2844
F0.5
s(I21
g1079
tp2845
F0.5
s(I21
g175
tp2846
F0.5
s(I29
g668
tp2847
F0.5
s(I9
g177
tp2848
F0.5
s(I7
g984
tp2849
F0.5
s(I17
g122
tp2850
F0.5
s(I24
g1591
tp2851
F0.5
s(I17
g187
tp2852
F0.5
s(I5
g1535
tp2853
F0.5
s(I23
g193
tp2854
F0.5
s(I14
g195
tp2855
F0.5
s(I29
g197
tp2856
F0.5
s(I11
g1239
tp2857
F0.5
s(I4
g709
tp2858
F0.5
s(I2
g1009
tp2859
F0.5
s(I5
g1011
tp2860
F0.5
s(I27
g1013
tp2861
F0.5
s(I1
g204
tp2862
F0.5
s(I0
g207
tp2863
F0.5
s(I14
g211
tp2864
F0.5
s(I15
g1018
tp2865
F0.5
s(I9
g52
tp2866
F0.5
s(I6
g1022
tp2867
F0.5
s(I16
g214
tp2868
F0.5
s(I15
g1026
tp2869
F0.5
s(I2
g217
tp2870
F0.5
s(I18
g1395
tp2871
F0.5
s(I29
g220
tp2872
F0.5
s(I11
g223
tp2873
F0.5
s(I24
g225
tp2874
F0.5
s(I25
g228
tp2875
F0.5
s(I0
g597
tp2876
F0.5
s(I16
g838
tp2877
F0.5
s(I8
g232
tp2878
F0.5
s(I2
g706
tp2879
F0.5
s(I0
g1040
tp2880
F0.5
s(I14
g239
tp2881
F0.5
s(I13
g243
tp2882
F0.5
s(I4
g1045
tp2883
F0.5
s(I8
g246
tp2884
F0.5
s(I25
g248
tp2885
F0.5
s(I23
g1051
tp2886
F0.5
s(I26
g1427
tp2887
F0.5
s(I11
g253
tp2888
F0.5
s(I6
g1589
tp2889
F0.5
s(I1
g1061
tp2890
F0.5
s(I25
g200
tp2891
F0.5
s(I21
g1611
tp2892
F0.5
s(I4
g1619
tp2893
F0.5
s(I10
g267
tp2894
F0.5
s(I29
g271
tp2895
F0.5
s(I20
g273
tp2896
F0.5
s(I15
g72
tp2897
F0.5
s(I7
g277
tp2898
F0.5
s(I18
g887
tp2899
F0.5
s(I4
g280
tp2900
F0.5
s(I13
g282
tp2901
F0.5
s(I19
g847
tp2902
F0.5
s(I11
g285
tp2903
F0.5
s(I10
g1086
tp2904
F0.5
s(I10
g1090
tp2905
F0.5
s(I15
g665
tp2906
F0.5
s(I22
g1093
tp2907
F0.5
s(I10
g1095
tp2908
F0.5
s(I25
g1097
tp2909
F0.5
s(I16
g181
tp2910
F0.5
s(I6
g294
tp2911
F0.5
s(I6
g296
tp2912
F0.5
s(I3
g209
tp2913
F0.5
s(I14
g299
tp2914
F0.5
s(I7
g302
tp2915
F0.5
s(I26
g1110
tp2916
F0.5
s(I24
g1473
tp2917
F0.5
s(I16
g1115
tp2918
F0.5
s(I20
g313
tp2919
F0.5
s(I9
g543
tp2920
F0.5
s(I1
g318
tp2921
F0.5
s(I9
g321
tp2922
F0.5
s(I4
g579
tp2923
F0.5
s(I8
g324
tp2924
F0.5
s(I16
g58
tp2925
F0.5
s(I11
g1126
tp2926
F0.5
s(I21
g1212
tp2927
F0.5
s(I9
g361
tp2928
F0.5
s(I2
g447
tp2929
F0.5
s(I15
g331
tp2930
F0.5
s(I10
g1104
tp2931
F0.5
s(I27
g1136
tp2932
F0.5
s(I12
g1138
tp2933
F0.5
s(I17
g1140
tp2934
F0.5
s(I9
g335
tp2935
F0.5
s(I27
g1143
tp2936
F0.5
s(I4
g337
tp2937
F0.5
s(I16
g1147
tp2938
F0.5
s(I0
g499
tp2939
F0.5
s(I19
g513
tp2940
F0.5
s(I21
g345
tp2941
F0.5
s(I6
g737
tp2942
F0.5
s(I21
g1156
tp2943
F0.5
s(I25
g1158
tp2944
F0.5
s(I19
g1162
tp2945
F0.5
s(I11
g351
tp2946
F0.5
s(I6
g584
tp2947
F0.5
s(I15
g487
tp2948
F0.5
s(I24
g359
tp2949
F0.5
s(I24
g938
tp2950
F0.5
s(I12
g1059
tp2951
F0.5
s(I16
g618
tp2952
F0.5
s(I22
g1172
tp2953
F0.5
s(I1
g367
tp2954
F0.5
s(I19
g1063
tp2955
F0.5
s(I11
g659
tp2956
F0.5
s(I11
g677
tp2957
F0.5
s(I20
g1179
tp2958
F0.5
s(I1
g1181
tp2959
F0.5
s(I11
g713
tp2960
F0.5
s(I22
g1184
tp2961
F0.5
s(I10
g1186
tp2962
F0.5
s(I22
g1188
tp2963
F0.5
s(I23
g380
tp2964
F0.5
s(I17
g1194
tp2965
F0.5
s(I0
g385
tp2966
F0.5
s(I20
g387
tp2967
F0.5
s(I9
g999
tp2968
F0.5
s(I6
g391
tp2969
F0.5
s(I3
g1204
tp2970
F0.5
s(I26
g1431
tp2971
F0.5
s(I2
g1207
tp2972
F0.5
s(I12
g1210
tp2973
F0.5
s(I9
g401
tp2974
F0.5
s(I20
g589
tp2975
F0.5
s(I23
g1214
tp2976
F0.5
s(I24
g866
tp2977
F0.5
s(I0
g1217
tp2978
F0.5
s(I19
g405
tp2979
F0.5
s(I13
g1220
tp2980
F0.5
s(I14
g1222
tp2981
F0.5
s(I4
g410
tp2982
F0.5
s(I23
g412
tp2983
F0.5
s(I26
g416
tp2984
F0.5
s(I11
g1227
tp2985
F0.5
s(I13
g81
tp2986
F0.5
s(I1
g422
tp2987
F0.5
s(I27
g1235
tp2988
F0.5
s(I21
g1345
tp2989
F0.5
s(I13
g428
tp2990
F0.5
s(I13
g1005
tp2991
F0.5
s(I1
g431
tp2992
F0.5
s(I20
g1243
tp2993
F0.5
s(I8
g434
tp2994
F0.5
s(I19
g1249
tp2995
F0.5
s(I7
g1251
tp2996
F0.5
s(I5
g1007
tp2997
F0.5
s(I24
g1254
tp2998
F0.5
s(I5
g472
tp2999
F0.5
s(I6
g1112
tp3000
F0.5
s(I17
g599
tp3001
F0.5
s(I27
g1261
tp3002
F0.5
s(I19
g445
tp3003
F0.5
s(I28
g1265
tp3004
F0.5
s(I8
g449
tp3005
F0.5
s(I13
g1230
tp3006
F0.5
s(I29
g1275
tp3007
F0.5
s(I10
g456
tp3008
F0.5
s(I25
g458
tp3009
F0.5
s(I21
g460
tp3010
F0.5
s(I25
g462
tp3011
F0.5
s(I4
g465
tp3012
F0.5
s(I22
g468
tp3013
F0.5
s(I26
g876
tp3014
F0.5
s(I17
g805
tp3015
F0.5
s(I11
g1267
tp3016
F0.5
s(I10
g1621
tp3017
F0.5
s(I16
g478
tp3018
F0.5
s(I1
g1300
tp3019
F0.5
s(I28
g481
tp3020
F0.5
s(I14
g1289
tp3021
F0.5
s(I4
g1291
tp3022
F0.5
s(I29
g436
tp3023
F0.5
s(I29
g1294
tp3024
F0.5
s(I2
g879
tp3025
F0.5
s(I29
g1558
tp3026
F0.5
s(I17
g363
tp3027
F0.5
s(I10
g1286
tp3028
F0.5
s(I24
g1302
tp3029
F0.5
s(I15
g762
tp3030
F0.5
s(I13
g492
tp3031
F0.5
s(I28
g495
tp3032
F0.5
s(I25
g1308
tp3033
F0.5
s(I8
g17
tp3034
F0.5
s(I24
g1315
tp3035
F0.5
s(I3
g502
tp3036
F0.5
s(I8
g504
tp3037
F0.5
s(I16
g1319
tp3038
F0.5
s(I18
g1321
tp3039
F0.5
s(I16
g1324
tp3040
F0.5
s(I7
g1329
tp3041
F0.5
s(I0
g510
tp3042
F0.5
s(I7
g1332
tp3043
F0.5
s(I21
g343
tp3044
F0.5
s(I14
g1335
tp3045
F0.5
s(I7
g1570
tp3046
F0.5
s(I14
g520
tp3047
F0.5
s(I1
g1341
tp3048
F0.5
s(I13
g1343
tp3049
F0.5
s(I1
g1347
tp3050
F0.5
s(I14
g1349
tp3051
F0.5
s(I18
g525
tp3052
F0.5
s(I23
g1353
tp3053
F0.5
s(I8
g1355
tp3054
F0.5
s(I27
g1358
tp3055
F0.5
s(I8
g530
tp3056
F0.5
s(I28
g1363
tp3057
F0.5
s(I27
g1540
tp3058
F0.5
s(I5
g1366
tp3059
F0.5
s(I5
g1368
tp3060
F0.5
s(I3
g1370
tp3061
F0.5
s(I7
g556
tp3062
F0.5
s(I19
g1379
tp3063
F0.5
s(I23
g1617
tp3064
F0.5
s(I8
g545
tp3065
F0.5
s(I6
g548
tp3066
F0.5
s(I16
g1082
tp3067
F0.5
s(I0
g1389
tp3068
F0.5
s(I4
g552
tp3069
F0.5
s(I26
g1361
tp3070
F0.5
s(I6
g1399
tp3071
F0.5
s(I15
g561
tp3072
F0.5
s(I20
g766
tp3073
F0.5
s(I11
g1403
tp3074
F0.5
s(I19
g235
tp3075
F0.5
s(I5
g566
tp3076
F0.5
s(I0
g568
tp3077
F0.5
s(I10
g572
tp3078
F0.5
s(I26
g574
tp3079
F0.5
s(I3
g577
tp3080
F0.5
s(I21
g749
tp3081
F0.5
s(I24
g581
tp3082
F0.5
s(I0
g382
tp3083
F0.5
s(I1
g1419
tp3084
F0.5
s(I18
g1421
tp3085
F0.5
s(I2
g1423
tp3086
F0.5
s(I29
g1425
tp3087
F0.5
s(I9
g1429
tp3088
F0.5
s(I3
g398
tp3089
F0.5
s(I15
g1433
tp3090
F0.5
s(I9
g994
tp3091
F0.5
s(I14
g1435
tp3092
F0.5
s(I12
g593
tp3093
F0.5
s(I7
g1032
tp3094
F0.5
s(I22
g1442
tp3095
F0.5
s(I24
g1444
tp3096
F0.5
s(I7
g1446
tp3097
F0.5
s(I5
g1449
tp3098
F0.5
s(I22
g609
tp3099
F0.5
s(I9
g1034
tp3100
F0.5
s(I4
g1311
tp3101
F0.5
s(I20
g1460
tp3102
F0.5
s(I15
g778
tp3103
F0.5
s(I3
g620
tp3104
F0.5
s(I24
g1628
tp3105
F0.5
s(I13
g1468
tp3106
F0.5
s(I23
g626
tp3107
F0.5
s(I26
g1475
tp3108
F0.5
s(I14
g644
tp3109
F0.5
s(I2
g38
tp3110
F0.5
s(I2
g636
tp3111
F0.5
s(I20
g606
tp3112
F0.5
s(I5
g1484
tp3113
F0.5
s(I1
g1487
tp3114
F0.5
s(I4
g1489
tp3115
F0.5
s(I23
g1492
tp3116
F0.5
s(I17
g1498
tp3117
F0.5
s(I19
g1500
tp3118
F0.5
s(I27
g651
tp3119
F0.5
s(I12
g653
tp3120
F0.5
s(I10
g1503
tp3121
F0.5
s(I7
g820
tp3122
F0.5
s(I29
g959
tp3123
F0.5
s(I15
g661
tp3124
F0.5
s(I20
g663
tp3125
F0.5
s(I21
g906
tp3126
F0.5
s(I28
g1511
tp3127
F0.5
s(I0
g1453
tp3128
F0.5
s(I13
g1515
tp3129
F0.5
s(I16
g675
tp3130
F0.5
s(I10
g679
tp3131
F0.5
s(I2
g1313
tp3132
F0.5
s(I5
g1520
tp3133
F0.5
s(I16
g683
tp3134
F0.5
s(I28
g1523
tp3135
F0.5
s(I27
g685
tp3136
F0.5
s(I20
g1527
tp3137
F0.5
s(I18
g690
tp3138
F0.5
s(I27
g1496
tp3139
F0.5
s(I2
g693
tp3140
F0.5
s(I8
g631
tp3141
F0.5
s(I22
g1384
tp3142
F0.5
s(I6
g699
tp3143
F0.5
s(I0
g701
tp3144
F0.5
s(I27
g1102
tp3145
F0.5
s(I28
g704
tp3146
F0.5
s(I7
g1545
tp3147
F0.5
s(I18
g1547
tp3148
F0.5
s(I18
g711
tp3149
F0.5
s(I18
g715
tp3150
F0.5
s(I8
g1551
tp3151
F0.5
s(I5
g1554
tp3152
F0.5
s(I5
g1556
tp3153
F0.5
s(I3
g719
tp3154
F0.5
s(I5
g1561
tp3155
F0.5
s(I6
g722
tp3156
F0.5
s(I5
g724
tp3157
F0.5
s(I21
g726
tp3158
F0.5
s(I22
g1053
tp3159
F0.5
s(I25
g1149
tp3160
F0.5
s(I2
g1160
tp3161
F0.5
s(I16
g1337
tp3162
F0.5
s(I4
g731
tp3163
F0.5
s(I20
g1529
tp3164
F0.5
s(I10
g1581
tp3165
F0.5
s(I7
g1258
tp3166
F0.5
s(I18
g1057
tp3167
F0.5
s(I27
g745
tp3168
F0.5
s(I25
g1587
tp3169
F0.5
s(I19
g942
tp3170
F0.5
s(I29
g1298
tp3171
F0.5
s(I28
g1305
tp3172
F0.5
s(I15
g753
tp3173
F0.5
s(I2
g1339
tp3174
F0.5
s(I3
g1596
tp3175
F0.5
s(I5
g758
tp3176
F0.5
s(I24
g1482
tp3177
F0.5
s(I14
g1601
tp3178
F0.5
s(I16
g764
tp3179
F0.5
s(I20
g768
tp3180
F0.5
s(I3
g1413
tp3181
F0.5
s(I18
g770
tp3182
F0.5
s(I28
g1607
tp3183
F0.5
s(I18
g927
tp3184
F0.5
s(I12
g138
tp3185
F0.5
s(I6
g1613
tp3186
F0.5
s(I13
g1197
tp3187
F0.5
s(I26
g1480
tp3188
F0.5
s(I19
g781
tp3189
F0.5
s(I3
g528
tp3190
F0.5
s(I26
g784
tp3191
F0.5
s(I22
g1624
tp3192
F0.5
s(I20
g349
tp3193
F0.5
s(I22
g1263
tp3194
F0.5
s(I15
g792
tp3195
F0.5
s(I26
g1567
tp3196
F0.5
s(I17
g1633
tp3197
F0.5
s(I29
g797
tp3198
F0.5
s(I21
g1202
tp3199
F0.5
s(I7
g265
tp3200
F0.5
s(I9
g1604
tp3201
F0.5
s(I3
g1641
tp3202
F0.5
s(I3
g1283
tp3203
F0.5
s(I1
g1583
tp3204
F0.5
stp3205
Rp3206
sS'VAR'
p3207
g2751
(g2752
g2753
(dp3208
g2756
F2.9766511477902213e-10
s(I27
I46
tp3209
F0.0
s(I4
I36
tp3210
F0.0
sg2762
F0.14999999997535196
sg3034
F0.01874999955373613
sg2764
F2.975861779219713e-10
sg2766
F3.2271185723686813e-10
s(I6
I54
tp3211
F0.0
sg2769
F3.2259483973007264e-10
s(I18
I45
tp3212
F0.0
sg2772
F2.972858625938102e-10
s(I18
I16
tp3213
F0.0
sg2773
F0.017211810873968503
s(I14
I1
tp3214
F0.0
sg2776
F0.03286327262175093
s(I29
I17
tp3215
F0.0
s(I3
I2
tp3216
F0.0
sg2781
F2.9761915154580265e-10
s(I15
I34
tp3217
F1.0
sg2782
F2.9746516361228714e-10
s(I5
I24
tp3218
F0.0
sg2784
F0.07916666653208304
s(I1
I40
tp3219
F0.0
sg2897
F0.0960300386074402
sg2785
F0.017211809218999896
s(I21
I37
tp3220
F1.0
s(I4
I35
tp3221
F0.0
s(I8
I38
tp3222
F0.0
sg2986
F0.15000000012808035
s(I16
I38
tp3223
F0.0
s(I10
I36
tp3224
F0.0
s(I9
I9
tp3225
F0.0
sg2797
F2.9766511477902213e-10
sg2798
F2.974309687431287e-10
s(I11
I15
tp3226
F1.0
sg2998
F0.0314794435959691
sg3075
F0.1500000001038767
s(I1
I21
tp3227
F1.0
sg2847
F0.15000000027203875
s(I28
I1
tp3228
F0.0
s(I2
I12
tp3229
F1.0
s(I24
I33
tp3230
F1.0
s(I5
I1
tp3231
F0.0
s(I27
I60
tp3232
F0.0
s(I1
I33
tp3233
F0.0
sg2850
F0.07916666657138094
s(I21
I46
tp3234
F0.0
s(I17
I6
tp3235
F0.0
s(I7
I15
tp3236
F0.0
s(I20
I21
tp3237
F0.0
s(I17
I46
tp3238
F0.0
sg3086
F2.9747315721806444e-10
s(I23
I40
tp3239
F0.0
s(I10
I47
tp3240
F0.0
sg2823
F3.595850284199287e-10
sg2824
F2.9732982742558534e-10
sg2825
F0.14943237813911148
s(I12
I41
tp3241
F1.0
s(I19
I17
tp3242
F0.0
s(I11
I4
tp3243
F0.0
s(I24
I28
tp3244
F1.0
s(I9
I0
tp3245
F0.0
s(I13
I6
tp3246
F0.0
sg2906
F2.9766511477902213e-10
s(I0
I5
tp3247
F0.0
s(I12
I29
tp3248
F0.0
sg2838
F2.9759661401840276e-10
s(I25
I3
tp3249
F0.0
sg2840
F2.9745594876118275e-10
s(I28
I24
tp3250
F0.0
s(I2
I7
tp3251
F1.0
s(I5
I10
tp3252
F1.0
sg2844
F0.11898896883688015
s(I27
I53
tp3253
F1.0
s(I4
I17
tp3254
F0.0
s(I26
I34
tp3255
F0.0
s(I7
I4
tp3256
F1.0
s(I3
I60
tp3257
F0.0
s(I23
I33
tp3258
F0.0
s(I28
I44
tp3259
F0.0
sg2855
F2.973276069795361e-10
sg2856
F0.007152038183351972
s(I12
I32
tp3260
F1.0
s(I8
I0
tp3261
F0.0
sg2864
F2.976249247055307e-10
sg2931
F0.22311818232806535
sg2868
F0.29999999930151255
s(I25
I4
tp3262
F0.0
sg2874
F2.9758151498526786e-10
sg2875
F0.01682403105754371
s(I14
I38
tp3263
F0.0
s(I4
I24
tp3264
F0.0
sg2881
F0.03147944305951178
s(I26
I45
tp3265
F1.0
s(I0
I40
tp3266
F1.0
sg2882
F4.371182305007437e-10
sg2884
F6.745586311751595e-10
s(I19
I6
tp3267
F0.0
sg2888
F0.007152039791401221
s(I22
I17
tp3268
F0.0
s(I5
I39
tp3269
F0.0
s(I9
I60
tp3270
F0.0
s(I21
I4
tp3271
F0.0
s(I7
I49
tp3272
F0.0
s(I14
I29
tp3273
F0.0
s(I29
I54
tp3274
F0.0
s(I10
I5
tp3275
F1.0
s(I29
I38
tp3276
F1.0
sg2898
F0.15000000012808035
sg2900
F2.9766511477902213e-10
sg2903
F0.07916666663511052
s(I25
I13
tp3277
F1.0
s(I15
I6
tp3278
F0.0
sg2834
F2.9766511477902213e-10
s(I24
I54
tp3279
F0.0
s(I24
I52
tp3280
F0.0
s(I27
I3
tp3281
F0.0
s(I1
I52
tp3282
F0.0
sg2913
F3.2271185723686813e-10
sg2914
F2.9758151498526786e-10
s(I26
I52
tp3283
F0.0
sg2915
F2.9766511477902213e-10
s(I20
I34
tp3284
F0.0
s(I16
I2
tp3285
F0.0
s(I19
I15
tp3286
F0.0
s(I2
I45
tp3287
F0.0
sg2919
F0.10617525674846373
s(I22
I40
tp3288
F1.0
s(I5
I32
tp3289
F1.0
s(I9
I37
tp3290
F0.0
sg2923
F2.9748792318429196e-10
sg2924
F2.9731472839245043e-10
s(I7
I46
tp3291
F0.0
s(I9
I17
tp3292
F0.0
sg2935
F0.15000000008537917
s(I15
I15
tp3293
F0.0
sg3044
F2.975200086297036e-10
s(I27
I24
tp3294
F0.0
sg3078
F0.017211809218999896
s(I29
I2
tp3295
F0.0
s(I25
I34
tp3296
F0.0
s(I2
I36
tp3297
F0.0
s(I5
I41
tp3298
F1.0
s(I9
I46
tp3299
F1.0
s(I21
I22
tp3300
F0.0
s(I11
I32
tp3301
F1.0
s(I23
I0
tp3302
F1.0
sg2964
F3.2278557604570324e-10
s(I10
I55
tp3303
F1.0
sg2967
F1.5411850684543538e-09
s(I13
I42
tp3304
F0.0
s(I12
I1
tp3305
F1.0
s(I11
I28
tp3306
F1.0
s(I24
I4
tp3307
F0.0
sg2979
F2.976249247055307e-10
s(I27
I17
tp3308
F0.0
s(I1
I6
tp3309
F0.0
s(I26
I6
tp3310
F1.0
s(I3
I24
tp3311
F0.0
sg2987
F2.9761915154580265e-10
s(I19
I29
tp3312
F0.0
sg2790
F2.975879542788107e-10
s(I5
I18
tp3313
F1.0
sg2992
F0.2177975637694909
s(I27
I45
tp3314
F0.0
sg2994
F0.09603003864276793
s(I8
I60
tp3315
F0.0
s(I20
I4
tp3316
F0.0
s(I6
I51
tp3317
F0.0
sg2989
F3.276481308489565e-10
sg3005
F0.15000000012800507
s(I18
I46
tp3318
F0.0
sg2936
F0.18309654535687947
s(I15
I29
tp3319
F1.0
sg3009
F0.06382602435153317
sg3010
F2.9733249196084444e-10
s(I14
I2
tp3320
F0.0
sg2999
F0.14967231573945416
sg3017
F2.9746816121445363e-10
s(I26
I1
tp3321
F0.0
s(I0
I52
tp3322
F0.0
sg3018
F0.15000000008537917
sg3019
F2.9766511477902213e-10
s(I25
I44
tp3323
F0.0
s(I15
I33
tp3324
F0.0
s(I28
I15
tp3325
F0.0
sg3027
F6.745586311751595e-10
s(I27
I34
tp3326
F0.0
s(I21
I24
tp3327
F0.0
sg3032
F3.685912686179904e-10
s(I17
I8
tp3328
F1.0
s(I6
I42
tp3329
F1.0
s(I18
I36
tp3330
F0.0
s(I9
I4
tp3331
F0.0
s(I16
I60
tp3332
F0.0
s(I14
I5
tp3333
F0.0
sg3052
F2.9766511477902213e-10
sg3056
F2.9761537678751893e-10
s(I9
I44
tp3334
F0.0
s(I3
I6
tp3335
F0.0
s(I15
I46
tp3336
F1.0
s(I28
I6
tp3337
F0.0
s(I23
I36
tp3338
F0.0
s(I5
I4
tp3339
F0.0
sg2920
F2.975917290370944e-10
s(I1
I44
tp3340
F0.0
sg3066
F0.16668501166153105
s(I21
I33
tp3341
F0.0
s(I29
I33
tp3342
F0.0
s(I6
I45
tp3343
F0.0
sg3072
F2.9766511477902213e-10
s(I22
I0
tp3344
F0.0
sg3076
F3.595850284199287e-10
sg3077
F2.974437363079119e-10
s(I12
I46
tp3345
F0.0
sg3079
F2.976210389249445e-10
s(I11
I3
tp3346
F0.0
s(I0
I2
tp3347
F0.0
s(I3
I15
tp3348
F0.0
sg2975
F0.2999999992740885
sg3093
F3.2757840884301004e-10
s(I28
I29
tp3349
F0.0
s(I2
I8
tp3350
F0.0
sg3001
F2.974437363079119e-10
s(I24
I37
tp3351
F0.0
s(I4
I22
tp3352
F1.0
sg3099
F0.17191237173342777
s(I20
I17
tp3353
F0.0
sg2829
F0.0638260242875971
s(I16
I17
tp3354
F0.0
s(I6
I36
tp3355
F0.0
sg2952
F2.9766511477902213e-10
s(I5
I49
tp3356
F1.0
s(I9
I54
tp3357
F0.0
sg3107
F0.14965881253334734
s(I8
I29
tp3358
F0.0
sg3109
F2.974904766972486e-10
s(I17
I54
tp3359
F0.0
s(I14
I23
tp3360
F1.0
s(I13
I2
tp3361
F0.0
s(I25
I7
tp3362
F0.0
s(I15
I60
tp3363
F0.0
sg3119
F2.9766511477902213e-10
s(I19
I9
tp3364
F1.0
s(I2
I3
tp3365
F0.0
s(I24
I44
tp3366
F1.0
s(I14
I35
tp3367
F0.0
sg3124
F2.976027202450382e-10
s(I4
I29
tp3368
F0.0
s(I26
I46
tp3369
F1.0
s(I7
I0
tp3370
F0.0
s(I20
I24
tp3371
F0.0
sg2810
F0.15059984411541516
s(I19
I5
tp3372
F1.0
sg3134
F2.976009438881988e-10
sg2831
F2.9759550379537814e-10
sg3139
F0.15000000002771097
sg3140
F3.2278557604570324e-10
s(I8
I4
tp3373
F0.0
s(I7
I52
tp3374
F0.0
sg3143
F2.9766511477902213e-10
sg3144
F0.007152004275422841
sg2879
F0.0187499993956608
s(I10
I6
tp3375
F0.0
sg2858
F2.9766511477902213e-10
sg3149
F2.9760938158318595e-10
sg3150
F0.11898896873701403
sg3011
F0.03147944305951178
s(I25
I8
tp3376
F0.0
s(I15
I5
tp3377
F0.0
sg3158
F0.15802889872211
sg3160
F0.03147944233274502
s(I14
I42
tp3378
F0.0
sg3163
F2.974904766972486e-10
s(I21
I60
tp3379
F1.0
s(I4
I4
tp3380
F0.0
s(I0
I44
tp3381
F0.0
s(I16
I15
tp3382
F0.0
s(I28
I39
tp3383
F0.0
s(I2
I46
tp3384
F0.0
sg3171
F2.976027202450382e-10
s(I5
I35
tp3385
F0.0
sg3173
F3.9204883783838795e-10
s(I9
I32
tp3386
F0.0
s(I21
I0
tp3387
F0.0
s(I7
I45
tp3388
F0.0
sg3030
F0.15000000027203875
s(I11
I54
tp3389
F0.0
sg3073
F0.01682403105754371
s(I10
I1
tp3390
F0.0
s(I18
I40
tp3391
F0.0
s(I8
I45
tp3392
F0.0
s(I13
I52
tp3393
F0.0
sg3189
F2.9738367324227966e-10
s(I12
I15
tp3394
F0.0
s(I25
I17
tp3395
F1.0
s(I15
I2
tp3396
F0.0
s(I14
I45
tp3397
F0.0
sg3195
F0.14999999985596124
sg3196
F0.11898896868397268
sg3198
F0.0960300386074402
sg3201
F2.974290813639868e-10
s(I26
I48
tp3398
F0.0
s(I0
I35
tp3399
F0.0
s(I24
I36
tp3400
F0.0
s(I20
I46
tp3401
F0.0
s(I3
I46
tp3402
F0.0
sg3015
F0.01874999955373613
s(I16
I6
tp3403
F1.0
s(I6
I9
tp3404
F0.0
sg2770
F2.9747226903964474e-10
s(I22
I44
tp3405
F1.0
s(I18
I4
tp3406
F1.0
sg2801
F3.5836722478421734e-10
sg2767
F0.0999999997770239
s(I12
I6
tp3407
F0.0
sg2877
F0.016824031453197774
sg2775
F2.9766511477902213e-10
sg2887
F2.9747315721806444e-10
sg2777
F0.06382602460086562
s(I24
I1
tp3408
F0.0
s(I14
I52
tp3409
F1.0
s(I1
I1
tp3410
F1.0
sg2780
F0.1500000001038767
s(I25
I38
tp3411
F0.0
s(I6
I0
tp3412
F0.0
s(I19
I24
tp3413
F0.0
s(I27
I40
tp3414
F0.0
s(I21
I18
tp3415
F1.0
s(I7
I35
tp3416
F0.0
s(I11
I36
tp3417
F0.0
sg3025
F0.0638260242469163
s(I6
I60
tp3418
F0.0
s(I13
I38
tp3419
F0.0
s(I18
I51
tp3420
F0.0
sg2802
F2.9766511477902213e-10
sg2808
F1.2649806757636384e-09
sg2809
F0.07916666657138094
s(I26
I2
tp3421
F1.0
sg3126
F0.14967231573945416
s(I20
I60
tp3422
F0.0
s(I15
I36
tp3423
F0.0
s(I19
I33
tp3424
F0.0
s(I27
I33
tp3425
F0.0
s(I4
I37
tp3426
F1.0
s(I7
I24
tp3427
F0.0
s(I20
I0
tp3428
F0.0
sg2950
F2.9766511477902213e-10
sg2985
F4.955981180998492e-10
sg2827
F0.1612192628792607
s(I29
I45
tp3429
F0.0
sg3164
F0.1500000000587517
s(I12
I52
tp3430
F0.0
s(I11
I9
tp3431
F1.0
s(I24
I15
tp3432
F0.0
s(I14
I6
tp3433
F0.0
sg2835
F3.8232306209806666e-10
sg2837
F0.14967231573945416
sg2843
F0.15000000025617422
s(I15
I45
tp3434
F0.0
s(I28
I11
tp3435
F1.0
s(I22
I49
tp3436
F0.0
sg2988
F0.10557909754145256
sg2849
F2.9761915154580265e-10
s(I27
I38
tp3437
F0.0
s(I21
I36
tp3438
F0.0
s(I17
I12
tp3439
F1.0
s(I7
I17
tp3440
F0.0
s(I20
I15
tp3441
F0.0
sg3091
F0.30000000004410765
s(I23
I54
tp3442
F0.0
s(I16
I39
tp3443
F0.0
s(I6
I46
tp3444
F0.0
sg3113
F0.2564530954979012
sg2857
F0.0999999997770239
sg2860
F0.15802889872211
sg3021
F0.03147944392812374
sg2865
F2.9746516361228714e-10
s(I14
I9
tp3445
F0.0
s(I18
I44
tp3446
F0.0
sg2993
F2.976009438881988e-10
sg2871
F2.9736413331704625e-10
s(I0
I15
tp3447
F0.0
s(I28
I2
tp3448
F0.0
s(I24
I34
tp3449
F0.0
s(I5
I0
tp3450
F0.0
sg2880
F3.685912686179904e-10
s(I21
I45
tp3451
F0.0
sg2883
F0.10802886396765199
s(I8
I46
tp3452
F0.0
s(I7
I14
tp3453
F1.0
s(I3
I54
tp3454
F0.0
s(I6
I33
tp3455
F0.0
sg2890
F2.975075741318278e-10
sg2892
F0.2339422019369719
s(I22
I4
tp3456
F1.0
s(I5
I52
tp3457
F0.0
s(I20
I54
tp3458
F0.0
s(I11
I7
tp3459
F1.0
s(I24
I29
tp3460
F0.0
s(I10
I16
tp3461
F1.0
s(I0
I6
tp3462
F0.0
s(I25
I2
tp3463
F0.0
sg2908
F0.1189889687630803
s(I19
I52
tp3464
F0.0
s(I2
I4
tp3465
F0.0
s(I27
I52
tp3466
F0.0
s(I21
I54
tp3467
F0.0
sg2836
F0.15000000012808035
sg3000
F0.09390368529655146
s(I20
I29
tp3468
F0.0
s(I16
I21
tp3469
F1.0
s(I6
I24
tp3470
F0.0
s(I28
I45
tp3471
F0.0
sg2926
F3.916440505236096e-10
s(I12
I33
tp3472
F0.0
s(I7
I59
tp3473
F1.0
s(I11
I60
tp3474
F0.0
sg2933
F0.11898896871873788
s(I0
I29
tp3475
F0.0
sg2938
F0.1500000000587517
s(I25
I11
tp3476
F1.0
sg2944
F0.042557869323018416
s(I26
I42
tp3477
F0.0
s(I20
I36
tp3478
F1.0
s(I3
I36
tp3479
F1.0
sg2955
F3.9235303894713525e-10
sg3188
F2.974309687431287e-10
s(I5
I38
tp3480
F0.0
s(I9
I35
tp3481
F0.0
sg3074
F0.1497217799559284
sg2960
F2.9762592390625286e-10
sg2962
F0.15000000012799775
sg2963
F0.15059984411541516
s(I8
I8
tp3482
F1.0
s(I7
I48
tp3483
F0.0
sg2806
F0.032863273726958186
sg2965
F2.9761537678751893e-10
sg3187
F0.17191237153806016
s(I10
I2
tp3484
F0.0
sg2972
F2.9766511477902213e-10
sg2973
F3.276481308489565e-10
sg2976
F0.007152004275422841
sg2978
F2.9759550379537814e-10
s(I14
I46
tp3485
F0.0
s(I27
I2
tp3486
F0.0
s(I4
I0
tp3487
F0.0
s(I26
I53
tp3488
F1.0
s(I0
I32
tp3489
F0.0
s(I29
I8
tp3490
F0.0
s(I3
I45
tp3491
F0.0
sg3092
F0.15000000008537917
s(I16
I3
tp3492
F0.0
sg2991
F0.15111288034913972
s(I2
I42
tp3493
F1.0
s(I5
I47
tp3494
F0.0
s(I12
I16
tp3495
F1.0
s(I9
I36
tp3496
F0.0
sg2995
F2.976210389249445e-10
s(I4
I52
tp3497
F0.0
s(I17
I36
tp3498
F0.0
s(I7
I41
tp3499
F0.0
s(I11
I42
tp3500
F0.0
sg3004
F0.07916666725040444
s(I13
I48
tp3501
F0.0
s(I3
I12
tp3502
F1.0
s(I2
I17
tp3503
F0.0
sg3016
F2.97595947884588e-10
sg3028
F3.276481308489565e-10
s(I4
I15
tp3504
F0.0
s(I26
I60
tp3505
F0.0
sg3022
F0.1189889693088021
sg3024
F2.9766511477902213e-10
s(I20
I42
tp3506
F0.0
s(I25
I33
tp3507
F1.0
s(I2
I37
tp3508
F0.0
sg3172
F0.2177975637694909
s(I9
I45
tp3509
F1.0
sg3033
F2.9762592390625286e-10
s(I17
I29
tp3510
F0.0
s(I7
I38
tp3511
F0.0
sg3038
F0.032863272750981
s(I16
I54
tp3512
F0.0
s(I10
I52
tp3513
F0.0
sg3162
F2.976027202450382e-10
s(I24
I5
tp3514
F0.0
sg3054
F3.916440505236096e-10
sg3057
F2.972840862369708e-10
sg3058
F3.221547473231112e-10
sg2783
F0.20584990888273347
sg3060
F3.2757840884301004e-10
s(I6
I4
tp3515
F0.0
sg3063
F0.007152051695742401
s(I2
I60
tp3516
F0.0
s(I5
I17
tp3517
F0.0
sg3067
F2.9766511477902213e-10
sg3068
F0.0638260242469163
sg3179
F0.15000000012800507
sg3071
F0.1061752566842793
s(I29
I46
tp3518
F0.0
s(I23
I24
tp3519
F0.0
s(I13
I34
tp3520
F0.0
s(I9
I2
tp3521
F0.0
sg3181
F0.14965881279838966
sg3084
F0.15000003519380223
sg3085
F0.23511573904722005
sg3087
F0.06382602433660023
sg3089
F0.0638260242875971
sg3090
F2.9758218111908263e-10
s(I18
I0
tp3522
F0.0
s(I3
I0
tp3523
F0.0
sg3177
F0.03147944392812374
sg3096
F0.01682403105754371
s(I19
I37
tp3524
F0.0
sg2852
F2.9754487762545523e-10
sg3128
F3.222763167443077e-10
s(I21
I39
tp3525
F0.0
s(I4
I33
tp3526
F0.0
s(I17
I15
tp3527
F1.0
sg3102
F2.973666868300029e-10
s(I29
I39
tp3528
F0.0
s(I16
I36
tp3529
F0.0
s(I10
I38
tp3530
F0.0
sg3106
F2.9766511477902213e-10
s(I18
I38
tp3531
F0.0
s(I8
I54
tp3532
F0.0
sg3115
F2.9717961425035355e-10
sg3116
F0.15000000012808035
s(I13
I15
tp3533
F0.0
s(I0
I38
tp3534
F0.0
sg3117
F0.17191237153806016
sg3121
F0.15025158879955536
s(I25
I52
tp3535
F0.0
s(I19
I42
tp3536
F0.0
s(I5
I3
tp3537
F0.0
s(I21
I32
tp3538
F0.0
sg3129
F0.15000000025617422
s(I17
I0
tp3539
F0.0
sg3133
F0.19354690502316252
s(I23
I46
tp3540
F0.0
s(I10
I33
tp3541
F0.0
s(I22
I1
tp3542
F0.0
s(I18
I33
tp3543
F0.0
sg3141
F2.9754487762545523e-10
s(I12
I47
tp3544
F1.0
sg3145
F3.1526870003517615e-10
s(I17
I60
tp3545
F0.0
sg3148
F0.1506823747935212
s(I14
I13
tp3546
F1.0
sg3151
F0.24415009267461463
sg2907
F0.11898896873701414
sg3026
F2.9766511477902213e-10
s(I26
I16
tp3547
F0.0
s(I0
I3
tp3548
F0.0
s(I15
I54
tp3549
F0.0
s(I19
I51
tp3550
F1.0
s(I2
I9
tp3551
F0.0
s(I24
I38
tp3552
F0.0
s(I27
I51
tp3553
F1.0
s(I1
I36
tp3554
F0.0
s(I21
I41
tp3555
F1.0
s(I26
I36
tp3556
F0.0
sg3169
F0.03286327262175093
sg3170
F2.974904766972486e-10
s(I22
I24
tp3557
F0.0
sg3175
F2.9766511477902213e-10
s(I18
I24
tp3558
F0.0
s(I28
I0
tp3559
F0.0
s(I12
I38
tp3560
F0.0
s(I18
I17
tp3561
F0.0
sg3186
F0.007152038183351972
s(I13
I1
tp3562
F0.0
sg3193
F0.1497217801323133
s(I25
I6
tp3563
F0.0
sg3105
F2.9758384645361957e-10
s(I29
I5
tp3564
F0.0
s(I2
I0
tp3565
F1.0
s(I24
I45
tp3566
F0.0
s(I14
I32
tp3567
F0.0
sg3202
F2.9759550379537814e-10
sg2755
F0.15000000002417002
s(I7
I3
tp3568
F0.0
sg2760
F2.974309687431287e-10
s(I23
I60
tp3569
F0.0
sg3053
F6.745586311751595e-10
sg2761
F4.0707270887452296e-10
s(I19
I4
tp3570
F0.0
sg2763
F3.2253522075365026e-10
sg2765
F2.9762070585803713e-10
s(I21
I6
tp3571
F0.0
s(I8
I5
tp3572
F0.0
s(I7
I55
tp3573
F1.0
sg2771
F2.975861779219713e-10
s(I0
I17
tp3574
F1.0
sg2774
F0.01874999955373613
s(I16
I29
tp3575
F1.0
s(I12
I17
tp3576
F0.0
s(I25
I15
tp3577
F0.0
s(I15
I4
tp3578
F0.0
sg2778
F0.007152065583477807
s(I13
I29
tp3579
F0.0
s(I1
I54
tp3580
F1.0
sg2925
F1.542481364857906e-09
s(I4
I5
tp3581
F0.0
s(I26
I54
tp3582
F0.0
s(I0
I45
tp3583
F0.0
s(I28
I36
tp3584
F0.0
sg2786
F2.976249247055307e-10
sg2787
F0.14965881279838966
sg2789
F0.2564530954979012
s(I5
I34
tp3585
F0.0
sg2791
F2.9766511477902213e-10
s(I9
I39
tp3586
F0.0
s(I21
I15
tp3587
F0.0
sg2794
F2.9750191199440223e-10
sg2795
F0.007152032099843608
s(I23
I9
tp3588
F1.0
s(I10
I14
tp3589
F1.0
s(I13
I51
tp3590
F1.0
sg2803
F2.9745594876118275e-10
sg2804
F4.371182305007437e-10
s(I27
I6
tp3591
F0.0
s(I1
I15
tp3592
F0.0
sg2811
F1.5412208176357467e-09
s(I0
I36
tp3593
F0.0
sg2814
F2.9748792318429196e-10
s(I29
I4
tp3594
F0.0
s(I3
I17
tp3595
F0.0
sg2816
F2.6057489499464737e-09
sg2817
F2.9758384645361957e-10
s(I2
I38
tp3596
F0.0
s(I22
I45
tp3597
F0.0
s(I9
I40
tp3598
F0.0
sg2757
F2.9766511477902213e-10
sg3131
F2.975789614723112e-10
s(I17
I24
tp3599
F0.0
s(I11
I46
tp3600
F0.0
s(I23
I6
tp3601
F0.0
sg2796
F0.15025158879955536
s(I8
I24
tp3602
F0.0
s(I24
I2
tp3603
F0.0
s(I1
I0
tp3604
F0.0
sg2839
F3.2278557604570324e-10
s(I26
I56
tp3605
F1.0
s(I29
I29
tp3606
F0.0
sg2845
F2.9766511477902213e-10
sg2846
F3.2757840884301004e-10
sg2848
F2.976249247055307e-10
s(I28
I54
tp3607
F1.0
s(I2
I33
tp3608
F0.0
s(I22
I36
tp3609
F0.0
sg2851
F0.03147944233274502
s(I21
I17
tp3610
F0.0
s(I17
I17
tp3611
F0.0
s(I7
I34
tp3612
F0.0
sg2854
F0.01874999955373613
s(I11
I39
tp3613
F0.0
s(I10
I48
tp3614
F0.0
sg2862
F3.685912686179904e-10
s(I9
I29
tp3615
F0.0
sg2863
F0.2177975637694909
sg2866
F2.975159008045125e-10
s(I14
I60
tp3616
F0.0
sg2870
F0.007152004275422841
sg2872
F2.9717961425035355e-10
sg2873
F0.23412014802300163
s(I16
I45
tp3617
F0.0
s(I26
I3
tp3618
F0.0
sg2878
F3.6023639626847626e-10
s(I25
I46
tp3619
F0.0
s(I15
I39
tp3620
F0.0
s(I19
I32
tp3621
F0.0
s(I5
I29
tp3622
F0.0
sg2885
F0.15000000025617422
s(I4
I38
tp3623
F1.0
s(I8
I33
tp3624
F0.0
s(I20
I1
tp3625
F0.0
sg2893
F0.007152038183351972
s(I6
I52
tp3626
F0.0
s(I10
I59
tp3627
F1.0
sg2894
F0.2944704745806511
s(I9
I6
tp3628
F0.0
sg2895
F3.9204883783838795e-10
sg2896
F0.1500000003053722
s(I15
I24
tp3629
F0.0
s(I28
I34
tp3630
F0.0
sg2901
F0.30000000004410765
s(I0
I9
tp3631
F0.0
s(I3
I4
tp3632
F0.0
sg2910
F2.9761826336738295e-10
sg2911
F2.3422324080257795e-09
sg2912
F7.287010994616594e-10
s(I28
I4
tp3633
F0.0
s(I22
I54
tp3634
F0.0
s(I5
I6
tp3635
F0.0
s(I1
I46
tp3636
F0.0
s(I19
I50
tp3637
F1.0
s(I21
I35
tp3638
F1.0
s(I4
I45
tp3639
F1.0
s(I7
I16
tp3640
F0.0
sg2921
F2.9766511477902213e-10
sg2922
F2.9766511477902213e-10
s(I23
I45
tp3641
F0.0
s(I10
I34
tp3642
F0.0
s(I22
I2
tp3643
F0.0
s(I9
I15
tp3644
F0.0
sg2930
F2.9766511477902213e-10
s(I12
I44
tp3645
F0.0
s(I16
I33
tp3646
F0.0
sg2937
F0.06382602433660034
s(I0
I0
tp3647
F1.0
sg2941
F3.275213433795443e-10
s(I19
I46
tp3648
F0.0
s(I14
I3
tp3649
F1.0
s(I24
I35
tp3650
F0.0
s(I5
I15
tp3651
F0.0
s(I1
I39
tp3652
F0.0
s(I17
I4
tp3653
F0.0
sg2954
F0.10000000000081577
s(I29
I60
tp3654
F0.0
sg2956
F2.9766511477902213e-10
s(I23
I42
tp3655
F0.0
s(I6
I38
tp3656
F1.0
s(I10
I45
tp3657
F0.0
s(I18
I34
tp3658
F0.0
s(I18
I29
tp3659
F0.0
sg2876
F0.07916666653208304
sg2966
F0.1830965446882249
s(I11
I6
tp3660
F0.0
sg2969
F2.975861779219713e-10
s(I14
I17
tp3661
F1.0
s(I10
I17
tp3662
F0.0
s(I13
I4
tp3663
F0.0
s(I2
I29
tp3664
F0.0
sg2977
F2.9766511477902213e-10
s(I25
I1
tp3665
F0.0
sg2982
F0.15000000012808035
sg2983
F0.1497217799559284
s(I2
I5
tp3666
F0.0
sg2984
F2.9766511477902213e-10
s(I27
I55
tp3667
F1.0
s(I7
I6
tp3668
F0.0
s(I19
I3
tp3669
F1.0
s(I5
I60
tp3670
F1.0
sg2792
F0.5055616708845518
s(I18
I60
tp3671
F0.0
s(I12
I34
tp3672
F0.0
s(I8
I2
tp3673
F0.0
sg2929
F2.9766511477902213e-10
sg3006
F3.2271185723686813e-10
s(I14
I24
tp3674
F0.0
s(I10
I24
tp3675
F0.0
sg3008
F0.07688181780914471
sg3012
F2.9723146166560355e-10
s(I12
I22
tp3676
F0.0
sg3013
F0.007152065583477807
sg2793
F0.017211810678495754
s(I19
I60
tp3677
F0.0
s(I14
I36
tp3678
F0.0
sg3020
F0.2177975640790708
sg2948
F2.9717961425035355e-10
s(I0
I42
tp3679
F1.0
sg3031
F0.2999999992740885
s(I5
I37
tp3680
F0.0
s(I18
I15
tp3681
F0.0
sg3037
F2.9733659978603555e-10
s(I17
I34
tp3682
F0.0
s(I11
I52
tp3683
F0.0
sg3042
F0.3000000007139678
sg2940
F0.15000000025617422
sg3046
F0.11898896871873788
s(I10
I3
tp3684
F0.0
sg2800
F2.9766511477902213e-10
s(I13
I54
tp3685
F0.0
s(I0
I21
tp3686
F1.0
sg3200
F0.07688181780914471
s(I15
I0
tp3687
F0.0
s(I27
I5
tp3688
F0.0
s(I8
I36
tp3689
F0.0
s(I4
I1
tp3690
F0.0
s(I0
I33
tp3691
F0.0
s(I29
I7
tp3692
F0.0
sg3065
F2.9722313499291886e-10
s(I16
I4
tp3693
F0.0
s(I28
I60
tp3694
F0.0
s(I22
I46
tp3695
F0.0
s(I5
I46
tp3696
F0.0
sg3062
F0.29447047455583364
s(I18
I6
tp3697
F0.0
s(I4
I53
tp3698
F1.0
s(I20
I51
tp3699
F0.0
s(I8
I48
tp3700
F1.0
s(I11
I45
tp3701
F0.0
s(I16
I48
tp3702
F1.0
sg2946
F4.952311893902106e-10
s(I23
I17
tp3703
F0.0
sg3080
F2.974437363079119e-10
sg3081
F2.9748403740370577e-10
sg3082
F0.03147944305951178
s(I12
I4
tp3704
F0.0
s(I14
I54
tp3705
F0.0
s(I1
I3
tp3706
F0.0
sg2990
F1.5411850684543538e-09
s(I29
I0
tp3707
F0.0
sg2949
F0.06382602435153317
s(I2
I34
tp3708
F1.0
s(I22
I33
tp3709
F0.0
s(I18
I1
tp3710
F0.0
s(I4
I60
tp3711
F1.0
sg3104
F2.9740887530493865e-10
s(I7
I33
tp3712
F0.0
s(I11
I34
tp3713
F0.0
s(I23
I2
tp3714
F0.0
s(I13
I40
tp3715
F1.0
s(I9
I24
tp3716
F0.0
sg3111
F2.976210389249445e-10
s(I12
I3
tp3717
F0.0
sg3108
F2.9766511477902213e-10
s(I25
I29
tp3718
F0.0
s(I24
I6
tp3719
F0.0
s(I20
I23
tp3720
F1.0
s(I1
I4
tp3721
F0.0
s(I26
I4
tp3722
F0.0
s(I10
I0
tp3723
F0.0
sg3122
F0.15049152651621223
sg3125
F0.07916666668568917
sg2768
F0.03147944233274502
s(I5
I16
tp3724
F1.0
sg3130
F2.9732349915434497e-10
sg2957
F0.36587985173231796
s(I14
I33
tp3725
F0.0
sg3136
F0.15000000025617422
s(I20
I6
tp3726
F1.0
sg3138
F2.9766511477902213e-10
s(I16
I46
tp3727
F0.0
s(I10
I60
tp3728
F0.0
s(I13
I33
tp3729
F0.0
s(I9
I1
tp3730
F0.0
sg3146
F2.9752977859232033e-10
s(I24
I13
tp3731
F0.0
sg3154
F2.9747759811016294e-10
s(I1
I29
tp3732
F1.0
sg3156
F2.9766511477902213e-10
sg3157
F0.14943237813911148
s(I26
I15
tp3733
F0.0
s(I0
I54
tp3734
F0.0
s(I19
I36
tp3735
F0.0
s(I2
I52
tp3736
F0.0
sg2942
F0.0960300386074402
s(I22
I51
tp3737
F0.0
s(I27
I36
tp3738
F0.0
sg3194
F3.2253522075365026e-10
s(I21
I38
tp3739
F0.0
s(I4
I34
tp3740
F0.0
sg3168
F3.2165115015914125e-10
s(I8
I37
tp3741
F0.0
s(I20
I13
tp3742
F1.0
s(I16
I37
tp3743
F1.0
sg3176
F2.9745594876118275e-10
sg3069
F2.9766511477902213e-10
s(I22
I15
tp3744
F0.0
sg3182
F0.17191237173342777
s(I12
I49
tp3745
F1.0
s(I8
I17
tp3746
F0.0
sg3103
F0.01874999970442226
s(I1
I22
tp3747
F0.0
s(I26
I22
tp3748
F1.0
s(I3
I8
tp3749
F0.0
sg2815
F2.596458492654108e-09
s(I19
I45
tp3750
F0.0
s(I2
I15
tp3751
F0.0
s(I1
I34
tp3752
F0.0
s(I21
I47
tp3753
F1.0
sg2758
F0.1061752572593262
sg2759
F3.916440505236096e-10
sg2779
F0.1612192631242212
s(I3
I52
tp3754
F0.0
s(I10
I46
tp3755
F0.0
s(I22
I6
tp3756
F0.0
s(I5
I54
tp3757
F0.0
sg3123
F2.970859114270752e-10
s(I17
I51
tp3758
F0.0
sg2841
F0.07916666661795912
s(I9
I61
tp3759
F1.0
s(I26
I17
tp3760
F0.0
s(I0
I4
tp3761
F0.0
sg3127
F0.4110121797190326
sg2902
F2.9746816121445363e-10
s(I25
I60
tp3762
F0.0
s(I20
I45
tp3763
F0.0
sg3098
F0.017211809218999896
s(I2
I6
tp3764
F0.0
s(I24
I39
tp3765
F1.0
sg2974
F2.9766511477902213e-10
s(I7
I5
tp3766
F1.0
s(I8
I6
tp3767
F0.0
sg2788
F0.17191237149454464
s(I23
I38
tp3768
F0.0
s(I10
I41
tp3769
F0.0
sg2997
F2.9762070585803713e-10
sg3014
F2.9751756613904945e-10
s(I9
I52
tp3770
F1.0
s(I12
I39
tp3771
F0.0
s(I17
I52
tp3772
F0.0
sg2826
F0.15049152651621223
s(I10
I29
tp3773
F0.0
s(I13
I0
tp3774
F0.0
s(I26
I24
tp3775
F1.0
sg2805
F0.15000000022835458
sg2807
F0.14965881253334734
sg3132
F2.9738367324227966e-10
s(I24
I46
tp3776
F0.0
sg2812
F1.5411850684543538e-09
s(I1
I60
tp3777
F0.0
sg2813
F2.9766511477902213e-10
s(I21
I49
tp3778
F1.0
s(I26
I44
tp3779
F0.0
s(I7
I2
tp3780
F0.0
s(I10
I4
tp3781
F0.0
s(I3
I34
tp3782
F0.0
s(I6
I29
tp3783
F0.0
sg2818
F2.9766511477902213e-10
sg2819
F0.5055616708845518
sg3184
F0.29447047455583364
sg2821
F2.9746427543386744e-10
s(I22
I16
tp3784
F0.0
sg2822
F3.224098765741701e-10
s(I9
I48
tp3785
F1.0
s(I21
I5
tp3786
F0.0
s(I17
I45
tp3787
F0.0
s(I7
I54
tp3788
F0.0
s(I11
I51
tp3789
F0.0
sg2828
F2.975200086297036e-10
sg2830
F0.16121926292336086
sg3137
F0.03286327262175093
sg2832
F2.9759550379537814e-10
sg2833
F2.9766511477902213e-10
s(I13
I57
tp3790
F1.0
s(I12
I18
tp3791
F1.0
s(I15
I7
tp3792
F1.0
s(I2
I24
tp3793
F1.0
sg2842
F3.275213433795443e-10
s(I4
I6
tp3794
F0.0
s(I0
I46
tp3795
F0.0
s(I20
I33
tp3796
F0.0
s(I23
I52
tp3797
F0.0
s(I28
I33
tp3798
F0.0
s(I5
I33
tp3799
F0.0
sg2853
F0.10802886396765199
s(I9
I38
tp3800
F0.0
sg2968
F2.974904766972486e-10
s(I17
I38
tp3801
F0.0
s(I7
I47
tp3802
F1.0
s(I16
I61
tp3803
F1.0
sg2861
F0.007152140668030493
s(I10
I15
tp3804
F0.0
sg3043
F0.22311818232806535
sg2867
F0.4333149857431964
s(I14
I39
tp3805
F1.0
sg2869
F2.975200086297036e-10
s(I24
I60
tp3806
F0.0
sg3094
F0.01721180927586241
sg3100
F2.9766511477902213e-10
s(I29
I3
tp3807
F0.0
sg3118
F2.975562019003064e-10
s(I6
I15
tp3808
F0.0
s(I28
I46
tp3809
F0.0
s(I27
I0
tp3810
F0.0
s(I22
I34
tp3811
F0.0
sg2886
F2.6057489499464737e-09
sg3159
F0.07916666683581774
s(I18
I2
tp3812
F0.0
sg3167
F0.07916666683581774
sg2889
F0.14972177985818114
s(I8
I52
tp3813
F0.0
s(I7
I36
tp3814
F0.0
s(I11
I33
tp3815
F1.0
s(I16
I52
tp3816
F0.0
s(I10
I54
tp3817
F0.0
s(I18
I54
tp3818
F0.0
s(I19
I38
tp3819
F0.0
s(I25
I24
tp3820
F0.0
s(I11
I29
tp3821
F0.0
s(I24
I3
tp3822
F0.0
sg2904
F0.15000000012198766
sg2905
F2.9762070585803713e-10
sg3152
F3.274828186405898e-10
sg2909
F2.9766511477902213e-10
s(I0
I60
tp3823
F0.0
s(I25
I36
tp3824
F0.0
s(I6
I6
tp3825
F0.0
sg2916
F2.9766511477902213e-10
sg2918
F0.14999999997535196
s(I21
I16
tp3826
F0.0
s(I7
I29
tp3827
F0.0
s(I11
I38
tp3828
F0.0
sg3003
F0.0187499993956608
s(I16
I1
tp3829
F0.0
sg2927
F0.017211810053936794
sg2928
F4.340243719980208e-10
s(I10
I49
tp3830
F0.0
s(I13
I36
tp3831
F1.0
s(I18
I49
tp3832
F0.0
sg2932
F0.3444209075363758
sg2934
F3.916440505236096e-10
sg2891
F2.9766511477902213e-10
s(I14
I61
tp3833
F1.0
sg2939
F3.822322458546523e-10
s(I1
I24
tp3834
F0.0
s(I9
I3
tp3835
F1.0
s(I8
I39
tp3836
F0.0
s(I13
I24
tp3837
F0.0
s(I26
I0
tp3838
F0.0
sg2943
F0.14943237813911148
sg3161
F2.975861779219713e-10
sg2945
F2.9737090567749647e-10
s(I25
I45
tp3839
F0.0
s(I15
I38
tp3840
F0.0
sg2947
F0.15000000013861392
s(I22
I60
tp3841
F0.0
sg2953
F2.9766511477902213e-10
s(I27
I35
tp3842
F1.0
s(I4
I39
tp3843
F0.0
sg3120
F0.032863273537417914
s(I8
I34
tp3844
F0.0
sg2958
F4.371182305007437e-10
sg2959
F0.2574421308167495
s(I16
I34
tp3845
F0.0
sg2961
F0.29447047455583364
s(I9
I5
tp3846
F0.0
sg3191
F0.017211810678495754
s(I12
I54
tp3847
F0.0
sg3199
F0.19354690502316252
sg2970
F0.15000000012808035
s(I14
I4
tp3848
F0.0
s(I1
I17
tp3849
F0.0
s(I13
I17
tp3850
F0.0
sg2980
F4.340243719980208e-10
sg2981
F0.03286327262175093
s(I25
I54
tp3851
F1.0
s(I19
I40
tp3852
F0.0
s(I28
I40
tp3853
F0.0
s(I5
I5
tp3854
F0.0
s(I1
I45
tp3855
F0.0
s(I21
I34
tp3856
F0.0
s(I4
I46
tp3857
F0.0
s(I17
I2
tp3858
F0.0
s(I29
I34
tp3859
F1.0
s(I3
I51
tp3860
F0.0
sg2996
F2.9746816121445363e-10
sg3061
F0.16121926292336086
s(I10
I35
tp3861
F0.0
sg3166
F7.020047876338253e-10
sg2917
F2.9766511477902213e-10
sg3002
F0.06382602521000347
s(I12
I45
tp3862
F0.0
sg2859
F2.974176460668332e-10
s(I22
I38
tp3863
F0.0
s(I11
I0
tp3864
F0.0
sg3007
F0.14999999985596124
s(I24
I24
tp3865
F1.0
s(I14
I15
tp3866
F0.0
s(I28
I17
tp3867
F0.0
sg3203
F0.07916666657138094
s(I15
I52
tp3868
F1.0
sg3023
F0.01874999970442226
sg3048
F0.2177975640790708
s(I1
I38
tp3869
F0.0
sg2899
F0.01721180927586241
sg3029
F2.9762592390625286e-10
s(I29
I36
tp3870
F0.0
s(I26
I38
tp3871
F0.0
s(I6
I39
tp3872
F0.0
sg3101
F2.975200086297036e-10
sg3035
F2.973276069795361e-10
sg3039
F0.1612192631242212
sg3040
F4.366820238743685e-10
s(I12
I36
tp3873
F0.0
sg3041
F3.276481308489565e-10
s(I7
I60
tp3874
F0.0
sg3045
F0.5055616708845518
sg3059
F2.9766511477902213e-10
sg3049
F2.9766511477902213e-10
sg3050
F0.042557869323018416
sg3051
F2.9766511477902213e-10
s(I26
I29
tp3875
F0.0
s(I0
I24
tp3876
F0.0
s(I19
I34
tp3877
F0.0
s(I12
I24
tp3878
F0.0
sg3055
F2.972858625938102e-10
s(I25
I0
tp3879
F0.0
s(I2
I54
tp3880
F0.0
s(I19
I54
tp3881
F0.0
s(I2
I2
tp3882
F1.0
s(I14
I34
tp3883
F0.0
s(I27
I54
tp3884
F0.0
s(I21
I52
tp3885
F0.0
sg2799
F0.01721180927586241
s(I26
I33
tp3886
F0.0
s(I7
I1
tp3887
F1.0
sg3142
F0.1506823747935212
s(I29
I52
tp3888
F0.0
s(I3
I33
tp3889
F0.0
s(I23
I34
tp3890
F0.0
sg3178
F0.01682403105754371
s(I19
I2
tp3891
F1.0
sg3070
F0.1537636383433194
s(I22
I29
tp3892
F0.0
s(I12
I35
tp3893
F1.0
s(I8
I3
tp3894
F0.0
sg3083
F2.975879542788107e-10
s(I13
I60
tp3895
F0.0
sg3088
F2.9722402317133856e-10
sg2971
F0.15000000012808035
s(I19
I0
tp3896
F0.0
s(I14
I37
tp3897
F0.0
s(I27
I15
tp3898
F0.0
sg3095
F2.9760938158318595e-10
sg3097
F0.15000000012799775
s(I20
I38
tp3899
F0.0
s(I3
I38
tp3900
F0.0
s(I6
I17
tp3901
F0.0
s(I28
I38
tp3902
F0.0
s(I5
I36
tp3903
F0.0
s(I12
I60
tp3904
F0.0
s(I9
I33
tp3905
F0.0
s(I21
I1
tp3906
F0.0
s(I17
I33
tp3907
F0.0
s(I9
I34
tp3908
F0.0
s(I23
I15
tp3909
F1.0
sg2820
F0.07916666663511063
sg3110
F2.975562019003064e-10
sg3112
F2.9766511477902213e-10
sg3036
F0.007152032099843608
s(I12
I14
tp3910
F1.0
sg3114
F0.11898896871873788
s(I15
I3
tp3911
F0.0
s(I14
I44
tp3912
F1.0
s(I27
I4
tp3913
F0.0
s(I4
I2
tp3914
F0.0
s(I0
I34
tp3915
F0.0
s(I29
I6
tp3916
F0.0
s(I16
I5
tp3917
F0.0
s(I6
I8
tp3918
F1.0
s(I2
I40
tp3919
F0.0
s(I5
I45
tp3920
F0.0
s(I9
I42
tp3921
F0.0
sg3135
F0.06382602500308221
s(I21
I10
tp3922
F1.0
s(I4
I54
tp3923
F0.0
s(I16
I24
tp3924
F0.0
s(I23
I4
tp3925
F0.0
s(I13
I46
tp3926
F0.0
sg3147
F0.15000000012198766
s(I12
I5
tp3927
F0.0
s(I15
I8
tp3928
F0.0
sg3153
F3.275213433795443e-10
s(I11
I24
tp3929
F0.0
sg3155
F3.276481308489565e-10
s(I24
I0
tp3930
F0.0
s(I1
I2
tp3931
F0.0
s(I21
I29
tp3932
F0.0
s(I20
I52
tp3933
F0.0
s(I25
I39
tp3934
F1.0
s(I28
I52
tp3935
F0.0
sg3165
F7.025822146289329e-10
sg3204
F0.032863273537417914
s(I21
I3
tp3936
F0.0
s(I5
I22
tp3937
F1.0
sg2951
F2.975345525513262e-10
sg3047
F2.9758384645361957e-10
sg3174
F3.9235303894713525e-10
s(I11
I37
tp3938
F0.0
s(I23
I29
tp3939
F0.0
sg3180
F0.515879844508917
s(I13
I39
tp3940
F0.0
sg3183
F0.2574421308167495
sg3185
F0.15000003519380223
s(I29
I15
tp3941
F0.0
s(I15
I17
tp3942
F0.0
sg3064
F0.15000000002417002
sg3190
F0.17191237153806016
s(I11
I17
tp3943
F0.0
sg3192
F2.9766511477902213e-10
s(I26
I5
tp3944
F0.0
sg3197
F0.15000000012808035
s(I29
I24
tp3945
F0.0
s(I3
I29
tp3946
F0.0
s(I25
I40
tp3947
F0.0
stp3948
Rp3949
sb.